ARM GAS  C:\Users\wyx12\AppData\Local\Temp\ccMQeCCo.s 			page 1


   1              		.cpu cortex-m3
   2              		.arch armv7-m
   3              		.fpu softvfp
   4              		.eabi_attribute 20, 1
   5              		.eabi_attribute 21, 1
   6              		.eabi_attribute 23, 3
   7              		.eabi_attribute 24, 1
   8              		.eabi_attribute 25, 1
   9              		.eabi_attribute 26, 1
  10              		.eabi_attribute 30, 1
  11              		.eabi_attribute 34, 1
  12              		.eabi_attribute 18, 4
  13              		.file	"gpio.c"
  14              		.text
  15              	.Ltext0:
  16              		.cfi_sections	.debug_frame
  17              		.file 1 "Core/Src/gpio.c"
  18              		.section	.text.MX_GPIO_Init,"ax",%progbits
  19              		.align	1
  20              		.global	MX_GPIO_Init
  21              		.syntax unified
  22              		.thumb
  23              		.thumb_func
  25              	MX_GPIO_Init:
  26              	.LFB65:
   1:Core/Src/gpio.c **** /*
   2:Core/Src/gpio.c ****  * @Author: MajorZpley
   3:Core/Src/gpio.c ****  * @Date: 2023-08-03 11:24:35
   4:Core/Src/gpio.c ****  * @LastEditTime: 2023-08-04 16:53:29
   5:Core/Src/gpio.c ****  * @LastEditors: your name
   6:Core/Src/gpio.c ****  * @Description:
   7:Core/Src/gpio.c ****  * @FilePath: \stm32f103rctx+sx1262+sound2\Core\Src\gpio.c
   8:Core/Src/gpio.c ****  * practice makes perfect!
   9:Core/Src/gpio.c ****  */
  10:Core/Src/gpio.c **** /* USER CODE BEGIN Header */
  11:Core/Src/gpio.c **** /**
  12:Core/Src/gpio.c ****  ******************************************************************************
  13:Core/Src/gpio.c ****  * @file    gpio.c
  14:Core/Src/gpio.c ****  * @brief   This file provides code for the configuration
  15:Core/Src/gpio.c ****  *          of all used GPIO pins.
  16:Core/Src/gpio.c ****  ******************************************************************************
  17:Core/Src/gpio.c ****  * @attention
  18:Core/Src/gpio.c ****  *
  19:Core/Src/gpio.c ****  * Copyright (c) 2023 STMicroelectronics.
  20:Core/Src/gpio.c ****  * All rights reserved.
  21:Core/Src/gpio.c ****  *
  22:Core/Src/gpio.c ****  * This software is licensed under terms that can be found in the LICENSE file
  23:Core/Src/gpio.c ****  * in the root directory of this software component.
  24:Core/Src/gpio.c ****  * If no LICENSE file comes with this software, it is provided AS-IS.
  25:Core/Src/gpio.c ****  *
  26:Core/Src/gpio.c ****  ******************************************************************************
  27:Core/Src/gpio.c ****  */
  28:Core/Src/gpio.c **** /* USER CODE END Header */
  29:Core/Src/gpio.c **** 
  30:Core/Src/gpio.c **** /* Includes ------------------------------------------------------------------*/
  31:Core/Src/gpio.c **** #include "gpio.h"
  32:Core/Src/gpio.c **** 
ARM GAS  C:\Users\wyx12\AppData\Local\Temp\ccMQeCCo.s 			page 2


  33:Core/Src/gpio.c **** /* USER CODE BEGIN 0 */
  34:Core/Src/gpio.c **** 
  35:Core/Src/gpio.c **** /* USER CODE END 0 */
  36:Core/Src/gpio.c **** 
  37:Core/Src/gpio.c **** /*----------------------------------------------------------------------------*/
  38:Core/Src/gpio.c **** /* Configure GPIO                                                             */
  39:Core/Src/gpio.c **** /*----------------------------------------------------------------------------*/
  40:Core/Src/gpio.c **** /* USER CODE BEGIN 1 */
  41:Core/Src/gpio.c **** 
  42:Core/Src/gpio.c **** /* USER CODE END 1 */
  43:Core/Src/gpio.c **** 
  44:Core/Src/gpio.c **** /** Configure pins as
  45:Core/Src/gpio.c ****  * Analog
  46:Core/Src/gpio.c ****  * Input
  47:Core/Src/gpio.c ****  * Output
  48:Core/Src/gpio.c ****  * EVENT_OUT
  49:Core/Src/gpio.c ****  * EXTI
  50:Core/Src/gpio.c ****  */
  51:Core/Src/gpio.c **** void MX_GPIO_Init(void)
  52:Core/Src/gpio.c **** {
  27              		.loc 1 52 1 view -0
  28              		.cfi_startproc
  29              		@ args = 0, pretend = 0, frame = 32
  30              		@ frame_needed = 0, uses_anonymous_args = 0
  31 0000 2DE9F043 		push	{r4, r5, r6, r7, r8, r9, lr}
  32              	.LCFI0:
  33              		.cfi_def_cfa_offset 28
  34              		.cfi_offset 4, -28
  35              		.cfi_offset 5, -24
  36              		.cfi_offset 6, -20
  37              		.cfi_offset 7, -16
  38              		.cfi_offset 8, -12
  39              		.cfi_offset 9, -8
  40              		.cfi_offset 14, -4
  41 0004 89B0     		sub	sp, sp, #36
  42              	.LCFI1:
  43              		.cfi_def_cfa_offset 64
  53:Core/Src/gpio.c **** 
  54:Core/Src/gpio.c ****   GPIO_InitTypeDef GPIO_InitStruct = {0};
  44              		.loc 1 54 3 view .LVU1
  45              		.loc 1 54 20 is_stmt 0 view .LVU2
  46 0006 0024     		movs	r4, #0
  47 0008 0494     		str	r4, [sp, #16]
  48 000a 0594     		str	r4, [sp, #20]
  49 000c 0694     		str	r4, [sp, #24]
  50 000e 0794     		str	r4, [sp, #28]
  55:Core/Src/gpio.c **** 
  56:Core/Src/gpio.c ****   /* GPIO Ports Clock Enable */
  57:Core/Src/gpio.c ****   __HAL_RCC_GPIOC_CLK_ENABLE();
  51              		.loc 1 57 3 is_stmt 1 view .LVU3
  52              	.LBB2:
  53              		.loc 1 57 3 view .LVU4
  54              		.loc 1 57 3 view .LVU5
  55 0010 384B     		ldr	r3, .L3
  56 0012 9A69     		ldr	r2, [r3, #24]
  57 0014 42F01002 		orr	r2, r2, #16
  58 0018 9A61     		str	r2, [r3, #24]
ARM GAS  C:\Users\wyx12\AppData\Local\Temp\ccMQeCCo.s 			page 3


  59              		.loc 1 57 3 view .LVU6
  60 001a 9A69     		ldr	r2, [r3, #24]
  61 001c 02F01002 		and	r2, r2, #16
  62 0020 0092     		str	r2, [sp]
  63              		.loc 1 57 3 view .LVU7
  64 0022 009A     		ldr	r2, [sp]
  65              	.LBE2:
  66              		.loc 1 57 3 view .LVU8
  58:Core/Src/gpio.c ****   __HAL_RCC_GPIOD_CLK_ENABLE();
  67              		.loc 1 58 3 view .LVU9
  68              	.LBB3:
  69              		.loc 1 58 3 view .LVU10
  70              		.loc 1 58 3 view .LVU11
  71 0024 9A69     		ldr	r2, [r3, #24]
  72 0026 42F02002 		orr	r2, r2, #32
  73 002a 9A61     		str	r2, [r3, #24]
  74              		.loc 1 58 3 view .LVU12
  75 002c 9A69     		ldr	r2, [r3, #24]
  76 002e 02F02002 		and	r2, r2, #32
  77 0032 0192     		str	r2, [sp, #4]
  78              		.loc 1 58 3 view .LVU13
  79 0034 019A     		ldr	r2, [sp, #4]
  80              	.LBE3:
  81              		.loc 1 58 3 view .LVU14
  59:Core/Src/gpio.c ****   __HAL_RCC_GPIOA_CLK_ENABLE();
  82              		.loc 1 59 3 view .LVU15
  83              	.LBB4:
  84              		.loc 1 59 3 view .LVU16
  85              		.loc 1 59 3 view .LVU17
  86 0036 9A69     		ldr	r2, [r3, #24]
  87 0038 42F00402 		orr	r2, r2, #4
  88 003c 9A61     		str	r2, [r3, #24]
  89              		.loc 1 59 3 view .LVU18
  90 003e 9A69     		ldr	r2, [r3, #24]
  91 0040 02F00402 		and	r2, r2, #4
  92 0044 0292     		str	r2, [sp, #8]
  93              		.loc 1 59 3 view .LVU19
  94 0046 029A     		ldr	r2, [sp, #8]
  95              	.LBE4:
  96              		.loc 1 59 3 view .LVU20
  60:Core/Src/gpio.c ****   __HAL_RCC_GPIOB_CLK_ENABLE();
  97              		.loc 1 60 3 view .LVU21
  98              	.LBB5:
  99              		.loc 1 60 3 view .LVU22
 100              		.loc 1 60 3 view .LVU23
 101 0048 9A69     		ldr	r2, [r3, #24]
 102 004a 42F00802 		orr	r2, r2, #8
 103 004e 9A61     		str	r2, [r3, #24]
 104              		.loc 1 60 3 view .LVU24
 105 0050 9B69     		ldr	r3, [r3, #24]
 106 0052 03F00803 		and	r3, r3, #8
 107 0056 0393     		str	r3, [sp, #12]
 108              		.loc 1 60 3 view .LVU25
 109 0058 039B     		ldr	r3, [sp, #12]
 110              	.LBE5:
 111              		.loc 1 60 3 view .LVU26
  61:Core/Src/gpio.c **** 
ARM GAS  C:\Users\wyx12\AppData\Local\Temp\ccMQeCCo.s 			page 4


  62:Core/Src/gpio.c ****   /*Configure GPIO pin Output Level */
  63:Core/Src/gpio.c ****   HAL_GPIO_WritePin(SPI1_CS_GPIO_Port, SPI1_CS_Pin, GPIO_PIN_RESET);
 112              		.loc 1 63 3 view .LVU27
 113 005a DFF89C90 		ldr	r9, .L3+4
 114 005e 2246     		mov	r2, r4
 115 0060 1021     		movs	r1, #16
 116 0062 4846     		mov	r0, r9
 117 0064 FFF7FEFF 		bl	HAL_GPIO_WritePin
 118              	.LVL0:
  64:Core/Src/gpio.c **** 
  65:Core/Src/gpio.c ****   /*Configure GPIO pin Output Level */
  66:Core/Src/gpio.c ****   HAL_GPIO_WritePin(GPIOC, RF_RST_Pin | RF_BUSY_Pin, GPIO_PIN_RESET);
 119              		.loc 1 66 3 view .LVU28
 120 0068 DFF89080 		ldr	r8, .L3+8
 121 006c 2246     		mov	r2, r4
 122 006e 3021     		movs	r1, #48
 123 0070 4046     		mov	r0, r8
 124 0072 FFF7FEFF 		bl	HAL_GPIO_WritePin
 125              	.LVL1:
  67:Core/Src/gpio.c **** 
  68:Core/Src/gpio.c ****   /*Configure GPIO pin Output Level */
  69:Core/Src/gpio.c ****   HAL_GPIO_WritePin(GPIOB, BATT_DET_Pin | EN_5V_Pin | SAMPLE_CS_Pin | SAMPLE_SCK_Pin | WDOG_Pin, GP
 126              		.loc 1 69 3 view .LVU29
 127 0076 224D     		ldr	r5, .L3+12
 128 0078 2246     		mov	r2, r4
 129 007a 43F24501 		movw	r1, #12357
 130 007e 2846     		mov	r0, r5
 131 0080 FFF7FEFF 		bl	HAL_GPIO_WritePin
 132              	.LVL2:
  70:Core/Src/gpio.c ****   HAL_GPIO_WritePin(GPIOB, LED_Pin, GPIO_PIN_SET);
 133              		.loc 1 70 3 view .LVU30
 134 0084 0122     		movs	r2, #1
 135 0086 8021     		movs	r1, #128
 136 0088 2846     		mov	r0, r5
 137 008a FFF7FEFF 		bl	HAL_GPIO_WritePin
 138              	.LVL3:
  71:Core/Src/gpio.c **** 
  72:Core/Src/gpio.c ****   /*Configure GPIO pin : PtPin */
  73:Core/Src/gpio.c ****   GPIO_InitStruct.Pin = RF_NIRQ_Pin;
 139              		.loc 1 73 3 view .LVU31
 140              		.loc 1 73 23 is_stmt 0 view .LVU32
 141 008e 0823     		movs	r3, #8
 142 0090 0493     		str	r3, [sp, #16]
  74:Core/Src/gpio.c ****   GPIO_InitStruct.Mode = GPIO_MODE_INPUT;
 143              		.loc 1 74 3 is_stmt 1 view .LVU33
 144              		.loc 1 74 24 is_stmt 0 view .LVU34
 145 0092 0594     		str	r4, [sp, #20]
  75:Core/Src/gpio.c ****   GPIO_InitStruct.Pull = GPIO_NOPULL;
 146              		.loc 1 75 3 is_stmt 1 view .LVU35
 147              		.loc 1 75 24 is_stmt 0 view .LVU36
 148 0094 0694     		str	r4, [sp, #24]
  76:Core/Src/gpio.c ****   HAL_GPIO_Init(RF_NIRQ_GPIO_Port, &GPIO_InitStruct);
 149              		.loc 1 76 3 is_stmt 1 view .LVU37
 150 0096 04A9     		add	r1, sp, #16
 151 0098 4046     		mov	r0, r8
 152 009a FFF7FEFF 		bl	HAL_GPIO_Init
 153              	.LVL4:
ARM GAS  C:\Users\wyx12\AppData\Local\Temp\ccMQeCCo.s 			page 5


  77:Core/Src/gpio.c **** 
  78:Core/Src/gpio.c ****   /*Configure GPIO pin : PtPin */
  79:Core/Src/gpio.c ****   GPIO_InitStruct.Pin = SPI1_CS_Pin;
 154              		.loc 1 79 3 view .LVU38
 155              		.loc 1 79 23 is_stmt 0 view .LVU39
 156 009e 1023     		movs	r3, #16
 157 00a0 0493     		str	r3, [sp, #16]
  80:Core/Src/gpio.c ****   GPIO_InitStruct.Mode = GPIO_MODE_OUTPUT_PP;
 158              		.loc 1 80 3 is_stmt 1 view .LVU40
 159              		.loc 1 80 24 is_stmt 0 view .LVU41
 160 00a2 0127     		movs	r7, #1
 161 00a4 0597     		str	r7, [sp, #20]
  81:Core/Src/gpio.c ****   GPIO_InitStruct.Pull = GPIO_NOPULL;
 162              		.loc 1 81 3 is_stmt 1 view .LVU42
 163              		.loc 1 81 24 is_stmt 0 view .LVU43
 164 00a6 0694     		str	r4, [sp, #24]
  82:Core/Src/gpio.c ****   GPIO_InitStruct.Speed = GPIO_SPEED_FREQ_LOW;
 165              		.loc 1 82 3 is_stmt 1 view .LVU44
 166              		.loc 1 82 25 is_stmt 0 view .LVU45
 167 00a8 0226     		movs	r6, #2
 168 00aa 0796     		str	r6, [sp, #28]
  83:Core/Src/gpio.c ****   HAL_GPIO_Init(SPI1_CS_GPIO_Port, &GPIO_InitStruct);
 169              		.loc 1 83 3 is_stmt 1 view .LVU46
 170 00ac 0DEB0301 		add	r1, sp, r3
 171 00b0 4846     		mov	r0, r9
 172 00b2 FFF7FEFF 		bl	HAL_GPIO_Init
 173              	.LVL5:
  84:Core/Src/gpio.c **** 
  85:Core/Src/gpio.c ****   /*Configure GPIO pins : PCPin PCPin */
  86:Core/Src/gpio.c ****   GPIO_InitStruct.Pin = RF_RST_Pin | RF_BUSY_Pin;
 174              		.loc 1 86 3 view .LVU47
 175              		.loc 1 86 23 is_stmt 0 view .LVU48
 176 00b6 3023     		movs	r3, #48
 177 00b8 0493     		str	r3, [sp, #16]
  87:Core/Src/gpio.c ****   GPIO_InitStruct.Mode = GPIO_MODE_OUTPUT_PP;
 178              		.loc 1 87 3 is_stmt 1 view .LVU49
 179              		.loc 1 87 24 is_stmt 0 view .LVU50
 180 00ba 0597     		str	r7, [sp, #20]
  88:Core/Src/gpio.c ****   GPIO_InitStruct.Pull = GPIO_NOPULL;
 181              		.loc 1 88 3 is_stmt 1 view .LVU51
 182              		.loc 1 88 24 is_stmt 0 view .LVU52
 183 00bc 0694     		str	r4, [sp, #24]
  89:Core/Src/gpio.c ****   GPIO_InitStruct.Speed = GPIO_SPEED_FREQ_LOW;
 184              		.loc 1 89 3 is_stmt 1 view .LVU53
 185              		.loc 1 89 25 is_stmt 0 view .LVU54
 186 00be 0796     		str	r6, [sp, #28]
  90:Core/Src/gpio.c ****   HAL_GPIO_Init(GPIOC, &GPIO_InitStruct);
 187              		.loc 1 90 3 is_stmt 1 view .LVU55
 188 00c0 04A9     		add	r1, sp, #16
 189 00c2 4046     		mov	r0, r8
 190 00c4 FFF7FEFF 		bl	HAL_GPIO_Init
 191              	.LVL6:
  91:Core/Src/gpio.c **** 
  92:Core/Src/gpio.c ****   /*Configure GPIO pins : PBPin PBPin PBPin PBPin
  93:Core/Src/gpio.c ****                            PBPin */
  94:Core/Src/gpio.c ****   GPIO_InitStruct.Pin = BATT_DET_Pin | EN_5V_Pin | SAMPLE_CS_Pin | SAMPLE_SCK_Pin | WDOG_Pin | LED_
 192              		.loc 1 94 3 view .LVU56
ARM GAS  C:\Users\wyx12\AppData\Local\Temp\ccMQeCCo.s 			page 6


 193              		.loc 1 94 23 is_stmt 0 view .LVU57
 194 00c8 43F2C503 		movw	r3, #12485
 195 00cc 0493     		str	r3, [sp, #16]
  95:Core/Src/gpio.c ****   GPIO_InitStruct.Mode = GPIO_MODE_OUTPUT_PP;
 196              		.loc 1 95 3 is_stmt 1 view .LVU58
 197              		.loc 1 95 24 is_stmt 0 view .LVU59
 198 00ce 0597     		str	r7, [sp, #20]
  96:Core/Src/gpio.c ****   GPIO_InitStruct.Pull = GPIO_NOPULL;
 199              		.loc 1 96 3 is_stmt 1 view .LVU60
 200              		.loc 1 96 24 is_stmt 0 view .LVU61
 201 00d0 0694     		str	r4, [sp, #24]
  97:Core/Src/gpio.c ****   GPIO_InitStruct.Speed = GPIO_SPEED_FREQ_LOW;
 202              		.loc 1 97 3 is_stmt 1 view .LVU62
 203              		.loc 1 97 25 is_stmt 0 view .LVU63
 204 00d2 0796     		str	r6, [sp, #28]
  98:Core/Src/gpio.c ****   HAL_GPIO_Init(GPIOB, &GPIO_InitStruct);
 205              		.loc 1 98 3 is_stmt 1 view .LVU64
 206 00d4 04A9     		add	r1, sp, #16
 207 00d6 2846     		mov	r0, r5
 208 00d8 FFF7FEFF 		bl	HAL_GPIO_Init
 209              	.LVL7:
  99:Core/Src/gpio.c **** 
 100:Core/Src/gpio.c ****   /*Configure GPIO pins : PBPin PBPin */
 101:Core/Src/gpio.c ****   GPIO_InitStruct.Pin = SAMPLE_NO1_Pin | SAMPLE_NO2_Pin;
 210              		.loc 1 101 3 view .LVU65
 211              		.loc 1 101 23 is_stmt 0 view .LVU66
 212 00dc 4FF44043 		mov	r3, #49152
 213 00e0 0493     		str	r3, [sp, #16]
 102:Core/Src/gpio.c ****   GPIO_InitStruct.Mode = GPIO_MODE_INPUT;
 214              		.loc 1 102 3 is_stmt 1 view .LVU67
 215              		.loc 1 102 24 is_stmt 0 view .LVU68
 216 00e2 0594     		str	r4, [sp, #20]
 103:Core/Src/gpio.c ****   GPIO_InitStruct.Pull = GPIO_NOPULL;
 217              		.loc 1 103 3 is_stmt 1 view .LVU69
 218              		.loc 1 103 24 is_stmt 0 view .LVU70
 219 00e4 0694     		str	r4, [sp, #24]
 104:Core/Src/gpio.c ****   HAL_GPIO_Init(GPIOB, &GPIO_InitStruct);
 220              		.loc 1 104 3 is_stmt 1 view .LVU71
 221 00e6 04A9     		add	r1, sp, #16
 222 00e8 2846     		mov	r0, r5
 223 00ea FFF7FEFF 		bl	HAL_GPIO_Init
 224              	.LVL8:
 105:Core/Src/gpio.c **** }
 225              		.loc 1 105 1 is_stmt 0 view .LVU72
 226 00ee 09B0     		add	sp, sp, #36
 227              	.LCFI2:
 228              		.cfi_def_cfa_offset 28
 229              		@ sp needed
 230 00f0 BDE8F083 		pop	{r4, r5, r6, r7, r8, r9, pc}
 231              	.L4:
 232              		.align	2
 233              	.L3:
 234 00f4 00100240 		.word	1073876992
 235 00f8 00080140 		.word	1073809408
 236 00fc 00100140 		.word	1073811456
 237 0100 000C0140 		.word	1073810432
 238              		.cfi_endproc
ARM GAS  C:\Users\wyx12\AppData\Local\Temp\ccMQeCCo.s 			page 7


 239              	.LFE65:
 241              		.text
 242              	.Letext0:
 243              		.file 2 "c:\\program files (x86)\\arm gnu toolchain arm-none-eabi\\12.2 rel1\\arm-none-eabi\\inclu
 244              		.file 3 "c:\\program files (x86)\\arm gnu toolchain arm-none-eabi\\12.2 rel1\\arm-none-eabi\\inclu
 245              		.file 4 "Drivers/CMSIS/Device/ST/STM32F1xx/Include/stm32f103xe.h"
 246              		.file 5 "Drivers/STM32F1xx_HAL_Driver/Inc/stm32f1xx_hal_gpio.h"
ARM GAS  C:\Users\wyx12\AppData\Local\Temp\ccMQeCCo.s 			page 8

