ARM GAS  C:\Users\wyx12\AppData\Local\Temp\ccE6dbeI.s 			page 1


   1              		.cpu cortex-m3
   2              		.arch armv7-m
   3              		.fpu softvfp
   4              		.eabi_attribute 20, 1
   5              		.eabi_attribute 21, 1
   6              		.eabi_attribute 23, 3
   7              		.eabi_attribute 24, 1
   8              		.eabi_attribute 25, 1
   9              		.eabi_attribute 26, 1
  10              		.eabi_attribute 30, 1
  11              		.eabi_attribute 34, 1
  12              		.eabi_attribute 18, 4
  13              		.file	"spi.c"
  14              		.text
  15              	.Ltext0:
  16              		.cfi_sections	.debug_frame
  17              		.file 1 "Core/Src/spi.c"
  18              		.section	.text.MX_SPI1_Init,"ax",%progbits
  19              		.align	1
  20              		.global	MX_SPI1_Init
  21              		.syntax unified
  22              		.thumb
  23              		.thumb_func
  25              	MX_SPI1_Init:
  26              	.LFB65:
   1:Core/Src/spi.c **** /* USER CODE BEGIN Header */
   2:Core/Src/spi.c **** /**
   3:Core/Src/spi.c ****  ******************************************************************************
   4:Core/Src/spi.c ****  * @file    spi.c
   5:Core/Src/spi.c ****  * @brief   This file provides code for the configuration
   6:Core/Src/spi.c ****  *          of the SPI instances.
   7:Core/Src/spi.c ****  ******************************************************************************
   8:Core/Src/spi.c ****  * @attention
   9:Core/Src/spi.c ****  *
  10:Core/Src/spi.c ****  * Copyright (c) 2023 STMicroelectronics.
  11:Core/Src/spi.c ****  * All rights reserved.
  12:Core/Src/spi.c ****  *
  13:Core/Src/spi.c ****  * This software is licensed under terms that can be found in the LICENSE file
  14:Core/Src/spi.c ****  * in the root directory of this software component.
  15:Core/Src/spi.c ****  * If no LICENSE file comes with this software, it is provided AS-IS.
  16:Core/Src/spi.c ****  *
  17:Core/Src/spi.c ****  ******************************************************************************
  18:Core/Src/spi.c ****  */
  19:Core/Src/spi.c **** /* USER CODE END Header */
  20:Core/Src/spi.c **** /* Includes ------------------------------------------------------------------*/
  21:Core/Src/spi.c **** #include "spi.h"
  22:Core/Src/spi.c **** 
  23:Core/Src/spi.c **** /* USER CODE BEGIN 0 */
  24:Core/Src/spi.c **** 
  25:Core/Src/spi.c **** /* USER CODE END 0 */
  26:Core/Src/spi.c **** 
  27:Core/Src/spi.c **** SPI_HandleTypeDef hspi1;
  28:Core/Src/spi.c **** 
  29:Core/Src/spi.c **** /* SPI1 init function */
  30:Core/Src/spi.c **** void MX_SPI1_Init(void)
  31:Core/Src/spi.c **** {
  27              		.loc 1 31 1 view -0
ARM GAS  C:\Users\wyx12\AppData\Local\Temp\ccE6dbeI.s 			page 2


  28              		.cfi_startproc
  29              		@ args = 0, pretend = 0, frame = 0
  30              		@ frame_needed = 0, uses_anonymous_args = 0
  31 0000 08B5     		push	{r3, lr}
  32              	.LCFI0:
  33              		.cfi_def_cfa_offset 8
  34              		.cfi_offset 3, -8
  35              		.cfi_offset 14, -4
  32:Core/Src/spi.c **** 
  33:Core/Src/spi.c ****   /* USER CODE BEGIN SPI1_Init 0 */
  34:Core/Src/spi.c **** 
  35:Core/Src/spi.c ****   /* USER CODE END SPI1_Init 0 */
  36:Core/Src/spi.c **** 
  37:Core/Src/spi.c ****   /* USER CODE BEGIN SPI1_Init 1 */
  38:Core/Src/spi.c **** 
  39:Core/Src/spi.c ****   /* USER CODE END SPI1_Init 1 */
  40:Core/Src/spi.c ****   hspi1.Instance = SPI1;
  36              		.loc 1 40 3 view .LVU1
  37              		.loc 1 40 18 is_stmt 0 view .LVU2
  38 0002 0E48     		ldr	r0, .L5
  39 0004 0E4B     		ldr	r3, .L5+4
  40 0006 0360     		str	r3, [r0]
  41:Core/Src/spi.c ****   hspi1.Init.Mode = SPI_MODE_MASTER;
  41              		.loc 1 41 3 is_stmt 1 view .LVU3
  42              		.loc 1 41 19 is_stmt 0 view .LVU4
  43 0008 4FF48273 		mov	r3, #260
  44 000c 4360     		str	r3, [r0, #4]
  42:Core/Src/spi.c ****   hspi1.Init.Direction = SPI_DIRECTION_2LINES;
  45              		.loc 1 42 3 is_stmt 1 view .LVU5
  46              		.loc 1 42 24 is_stmt 0 view .LVU6
  47 000e 0023     		movs	r3, #0
  48 0010 8360     		str	r3, [r0, #8]
  43:Core/Src/spi.c ****   hspi1.Init.DataSize = SPI_DATASIZE_8BIT;
  49              		.loc 1 43 3 is_stmt 1 view .LVU7
  50              		.loc 1 43 23 is_stmt 0 view .LVU8
  51 0012 C360     		str	r3, [r0, #12]
  44:Core/Src/spi.c ****   hspi1.Init.CLKPolarity = SPI_POLARITY_LOW;
  52              		.loc 1 44 3 is_stmt 1 view .LVU9
  53              		.loc 1 44 26 is_stmt 0 view .LVU10
  54 0014 0361     		str	r3, [r0, #16]
  45:Core/Src/spi.c ****   hspi1.Init.CLKPhase = SPI_PHASE_1EDGE;
  55              		.loc 1 45 3 is_stmt 1 view .LVU11
  56              		.loc 1 45 23 is_stmt 0 view .LVU12
  57 0016 4361     		str	r3, [r0, #20]
  46:Core/Src/spi.c ****   hspi1.Init.NSS = SPI_NSS_SOFT;
  58              		.loc 1 46 3 is_stmt 1 view .LVU13
  59              		.loc 1 46 18 is_stmt 0 view .LVU14
  60 0018 4FF40072 		mov	r2, #512
  61 001c 8261     		str	r2, [r0, #24]
  47:Core/Src/spi.c ****   hspi1.Init.BaudRatePrescaler = SPI_BAUDRATEPRESCALER_32;
  62              		.loc 1 47 3 is_stmt 1 view .LVU15
  63              		.loc 1 47 32 is_stmt 0 view .LVU16
  64 001e 2022     		movs	r2, #32
  65 0020 C261     		str	r2, [r0, #28]
  48:Core/Src/spi.c ****   hspi1.Init.FirstBit = SPI_FIRSTBIT_MSB;
  66              		.loc 1 48 3 is_stmt 1 view .LVU17
  67              		.loc 1 48 23 is_stmt 0 view .LVU18
ARM GAS  C:\Users\wyx12\AppData\Local\Temp\ccE6dbeI.s 			page 3


  68 0022 0362     		str	r3, [r0, #32]
  49:Core/Src/spi.c ****   hspi1.Init.TIMode = SPI_TIMODE_DISABLE;
  69              		.loc 1 49 3 is_stmt 1 view .LVU19
  70              		.loc 1 49 21 is_stmt 0 view .LVU20
  71 0024 4362     		str	r3, [r0, #36]
  50:Core/Src/spi.c ****   hspi1.Init.CRCCalculation = SPI_CRCCALCULATION_DISABLE;
  72              		.loc 1 50 3 is_stmt 1 view .LVU21
  73              		.loc 1 50 29 is_stmt 0 view .LVU22
  74 0026 8362     		str	r3, [r0, #40]
  51:Core/Src/spi.c ****   hspi1.Init.CRCPolynomial = 10;
  75              		.loc 1 51 3 is_stmt 1 view .LVU23
  76              		.loc 1 51 28 is_stmt 0 view .LVU24
  77 0028 0A23     		movs	r3, #10
  78 002a C362     		str	r3, [r0, #44]
  52:Core/Src/spi.c ****   if (HAL_SPI_Init(&hspi1) != HAL_OK)
  79              		.loc 1 52 3 is_stmt 1 view .LVU25
  80              		.loc 1 52 7 is_stmt 0 view .LVU26
  81 002c FFF7FEFF 		bl	HAL_SPI_Init
  82              	.LVL0:
  83              		.loc 1 52 6 view .LVU27
  84 0030 00B9     		cbnz	r0, .L4
  85              	.L1:
  53:Core/Src/spi.c ****   {
  54:Core/Src/spi.c ****     Error_Handler();
  55:Core/Src/spi.c ****   }
  56:Core/Src/spi.c ****   /* USER CODE BEGIN SPI1_Init 2 */
  57:Core/Src/spi.c **** 
  58:Core/Src/spi.c ****   /* USER CODE END SPI1_Init 2 */
  59:Core/Src/spi.c **** }
  86              		.loc 1 59 1 view .LVU28
  87 0032 08BD     		pop	{r3, pc}
  88              	.L4:
  54:Core/Src/spi.c ****   }
  89              		.loc 1 54 5 is_stmt 1 view .LVU29
  90 0034 FFF7FEFF 		bl	Error_Handler
  91              	.LVL1:
  92              		.loc 1 59 1 is_stmt 0 view .LVU30
  93 0038 FBE7     		b	.L1
  94              	.L6:
  95 003a 00BF     		.align	2
  96              	.L5:
  97 003c 00000000 		.word	hspi1
  98 0040 00300140 		.word	1073819648
  99              		.cfi_endproc
 100              	.LFE65:
 102              		.section	.text.HAL_SPI_MspInit,"ax",%progbits
 103              		.align	1
 104              		.global	HAL_SPI_MspInit
 105              		.syntax unified
 106              		.thumb
 107              		.thumb_func
 109              	HAL_SPI_MspInit:
 110              	.LVL2:
 111              	.LFB66:
  60:Core/Src/spi.c **** 
  61:Core/Src/spi.c **** void HAL_SPI_MspInit(SPI_HandleTypeDef *spiHandle)
  62:Core/Src/spi.c **** {
ARM GAS  C:\Users\wyx12\AppData\Local\Temp\ccE6dbeI.s 			page 4


 112              		.loc 1 62 1 is_stmt 1 view -0
 113              		.cfi_startproc
 114              		@ args = 0, pretend = 0, frame = 24
 115              		@ frame_needed = 0, uses_anonymous_args = 0
 116              		.loc 1 62 1 is_stmt 0 view .LVU32
 117 0000 10B5     		push	{r4, lr}
 118              	.LCFI1:
 119              		.cfi_def_cfa_offset 8
 120              		.cfi_offset 4, -8
 121              		.cfi_offset 14, -4
 122 0002 86B0     		sub	sp, sp, #24
 123              	.LCFI2:
 124              		.cfi_def_cfa_offset 32
  63:Core/Src/spi.c **** 
  64:Core/Src/spi.c ****   GPIO_InitTypeDef GPIO_InitStruct = {0};
 125              		.loc 1 64 3 is_stmt 1 view .LVU33
 126              		.loc 1 64 20 is_stmt 0 view .LVU34
 127 0004 0023     		movs	r3, #0
 128 0006 0293     		str	r3, [sp, #8]
 129 0008 0393     		str	r3, [sp, #12]
 130 000a 0493     		str	r3, [sp, #16]
 131 000c 0593     		str	r3, [sp, #20]
  65:Core/Src/spi.c ****   if (spiHandle->Instance == SPI1)
 132              		.loc 1 65 3 is_stmt 1 view .LVU35
 133              		.loc 1 65 16 is_stmt 0 view .LVU36
 134 000e 0268     		ldr	r2, [r0]
 135              		.loc 1 65 6 view .LVU37
 136 0010 164B     		ldr	r3, .L11
 137 0012 9A42     		cmp	r2, r3
 138 0014 01D0     		beq	.L10
 139              	.LVL3:
 140              	.L7:
  66:Core/Src/spi.c ****   {
  67:Core/Src/spi.c ****     /* USER CODE BEGIN SPI1_MspInit 0 */
  68:Core/Src/spi.c **** 
  69:Core/Src/spi.c ****     /* USER CODE END SPI1_MspInit 0 */
  70:Core/Src/spi.c ****     /* SPI1 clock enable */
  71:Core/Src/spi.c ****     __HAL_RCC_SPI1_CLK_ENABLE();
  72:Core/Src/spi.c **** 
  73:Core/Src/spi.c ****     __HAL_RCC_GPIOA_CLK_ENABLE();
  74:Core/Src/spi.c ****     /**SPI1 GPIO Configuration
  75:Core/Src/spi.c ****     PA5     ------> SPI1_SCK
  76:Core/Src/spi.c ****     PA6     ------> SPI1_MISO
  77:Core/Src/spi.c ****     PA7     ------> SPI1_MOSI
  78:Core/Src/spi.c ****     */
  79:Core/Src/spi.c ****     GPIO_InitStruct.Pin = GPIO_PIN_5 | GPIO_PIN_7;
  80:Core/Src/spi.c ****     GPIO_InitStruct.Mode = GPIO_MODE_AF_PP;
  81:Core/Src/spi.c ****     GPIO_InitStruct.Speed = GPIO_SPEED_FREQ_HIGH;
  82:Core/Src/spi.c ****     HAL_GPIO_Init(GPIOA, &GPIO_InitStruct);
  83:Core/Src/spi.c **** 
  84:Core/Src/spi.c ****     GPIO_InitStruct.Pin = GPIO_PIN_6;
  85:Core/Src/spi.c ****     GPIO_InitStruct.Mode = GPIO_MODE_INPUT;
  86:Core/Src/spi.c ****     GPIO_InitStruct.Pull = GPIO_NOPULL;
  87:Core/Src/spi.c ****     HAL_GPIO_Init(GPIOA, &GPIO_InitStruct);
  88:Core/Src/spi.c **** 
  89:Core/Src/spi.c ****     /* USER CODE BEGIN SPI1_MspInit 1 */
  90:Core/Src/spi.c **** 
ARM GAS  C:\Users\wyx12\AppData\Local\Temp\ccE6dbeI.s 			page 5


  91:Core/Src/spi.c ****     /* USER CODE END SPI1_MspInit 1 */
  92:Core/Src/spi.c ****   }
  93:Core/Src/spi.c **** }
 141              		.loc 1 93 1 view .LVU38
 142 0016 06B0     		add	sp, sp, #24
 143              	.LCFI3:
 144              		.cfi_remember_state
 145              		.cfi_def_cfa_offset 8
 146              		@ sp needed
 147 0018 10BD     		pop	{r4, pc}
 148              	.LVL4:
 149              	.L10:
 150              	.LCFI4:
 151              		.cfi_restore_state
  71:Core/Src/spi.c **** 
 152              		.loc 1 71 5 is_stmt 1 view .LVU39
 153              	.LBB2:
  71:Core/Src/spi.c **** 
 154              		.loc 1 71 5 view .LVU40
  71:Core/Src/spi.c **** 
 155              		.loc 1 71 5 view .LVU41
 156 001a 03F56043 		add	r3, r3, #57344
 157 001e 9A69     		ldr	r2, [r3, #24]
 158 0020 42F48052 		orr	r2, r2, #4096
 159 0024 9A61     		str	r2, [r3, #24]
  71:Core/Src/spi.c **** 
 160              		.loc 1 71 5 view .LVU42
 161 0026 9A69     		ldr	r2, [r3, #24]
 162 0028 02F48052 		and	r2, r2, #4096
 163 002c 0092     		str	r2, [sp]
  71:Core/Src/spi.c **** 
 164              		.loc 1 71 5 view .LVU43
 165 002e 009A     		ldr	r2, [sp]
 166              	.LBE2:
  71:Core/Src/spi.c **** 
 167              		.loc 1 71 5 view .LVU44
  73:Core/Src/spi.c ****     /**SPI1 GPIO Configuration
 168              		.loc 1 73 5 view .LVU45
 169              	.LBB3:
  73:Core/Src/spi.c ****     /**SPI1 GPIO Configuration
 170              		.loc 1 73 5 view .LVU46
  73:Core/Src/spi.c ****     /**SPI1 GPIO Configuration
 171              		.loc 1 73 5 view .LVU47
 172 0030 9A69     		ldr	r2, [r3, #24]
 173 0032 42F00402 		orr	r2, r2, #4
 174 0036 9A61     		str	r2, [r3, #24]
  73:Core/Src/spi.c ****     /**SPI1 GPIO Configuration
 175              		.loc 1 73 5 view .LVU48
 176 0038 9B69     		ldr	r3, [r3, #24]
 177 003a 03F00403 		and	r3, r3, #4
 178 003e 0193     		str	r3, [sp, #4]
  73:Core/Src/spi.c ****     /**SPI1 GPIO Configuration
 179              		.loc 1 73 5 view .LVU49
 180 0040 019B     		ldr	r3, [sp, #4]
 181              	.LBE3:
  73:Core/Src/spi.c ****     /**SPI1 GPIO Configuration
 182              		.loc 1 73 5 view .LVU50
ARM GAS  C:\Users\wyx12\AppData\Local\Temp\ccE6dbeI.s 			page 6


  79:Core/Src/spi.c ****     GPIO_InitStruct.Mode = GPIO_MODE_AF_PP;
 183              		.loc 1 79 5 view .LVU51
  79:Core/Src/spi.c ****     GPIO_InitStruct.Mode = GPIO_MODE_AF_PP;
 184              		.loc 1 79 25 is_stmt 0 view .LVU52
 185 0042 A023     		movs	r3, #160
 186 0044 0293     		str	r3, [sp, #8]
  80:Core/Src/spi.c ****     GPIO_InitStruct.Speed = GPIO_SPEED_FREQ_HIGH;
 187              		.loc 1 80 5 is_stmt 1 view .LVU53
  80:Core/Src/spi.c ****     GPIO_InitStruct.Speed = GPIO_SPEED_FREQ_HIGH;
 188              		.loc 1 80 26 is_stmt 0 view .LVU54
 189 0046 0223     		movs	r3, #2
 190 0048 0393     		str	r3, [sp, #12]
  81:Core/Src/spi.c ****     HAL_GPIO_Init(GPIOA, &GPIO_InitStruct);
 191              		.loc 1 81 5 is_stmt 1 view .LVU55
  81:Core/Src/spi.c ****     HAL_GPIO_Init(GPIOA, &GPIO_InitStruct);
 192              		.loc 1 81 27 is_stmt 0 view .LVU56
 193 004a 0323     		movs	r3, #3
 194 004c 0593     		str	r3, [sp, #20]
  82:Core/Src/spi.c **** 
 195              		.loc 1 82 5 is_stmt 1 view .LVU57
 196 004e 084C     		ldr	r4, .L11+4
 197 0050 02A9     		add	r1, sp, #8
 198 0052 2046     		mov	r0, r4
 199              	.LVL5:
  82:Core/Src/spi.c **** 
 200              		.loc 1 82 5 is_stmt 0 view .LVU58
 201 0054 FFF7FEFF 		bl	HAL_GPIO_Init
 202              	.LVL6:
  84:Core/Src/spi.c ****     GPIO_InitStruct.Mode = GPIO_MODE_INPUT;
 203              		.loc 1 84 5 is_stmt 1 view .LVU59
  84:Core/Src/spi.c ****     GPIO_InitStruct.Mode = GPIO_MODE_INPUT;
 204              		.loc 1 84 25 is_stmt 0 view .LVU60
 205 0058 4023     		movs	r3, #64
 206 005a 0293     		str	r3, [sp, #8]
  85:Core/Src/spi.c ****     GPIO_InitStruct.Pull = GPIO_NOPULL;
 207              		.loc 1 85 5 is_stmt 1 view .LVU61
  85:Core/Src/spi.c ****     GPIO_InitStruct.Pull = GPIO_NOPULL;
 208              		.loc 1 85 26 is_stmt 0 view .LVU62
 209 005c 0023     		movs	r3, #0
 210 005e 0393     		str	r3, [sp, #12]
  86:Core/Src/spi.c ****     HAL_GPIO_Init(GPIOA, &GPIO_InitStruct);
 211              		.loc 1 86 5 is_stmt 1 view .LVU63
  86:Core/Src/spi.c ****     HAL_GPIO_Init(GPIOA, &GPIO_InitStruct);
 212              		.loc 1 86 26 is_stmt 0 view .LVU64
 213 0060 0493     		str	r3, [sp, #16]
  87:Core/Src/spi.c **** 
 214              		.loc 1 87 5 is_stmt 1 view .LVU65
 215 0062 02A9     		add	r1, sp, #8
 216 0064 2046     		mov	r0, r4
 217 0066 FFF7FEFF 		bl	HAL_GPIO_Init
 218              	.LVL7:
 219              		.loc 1 93 1 is_stmt 0 view .LVU66
 220 006a D4E7     		b	.L7
 221              	.L12:
 222              		.align	2
 223              	.L11:
 224 006c 00300140 		.word	1073819648
ARM GAS  C:\Users\wyx12\AppData\Local\Temp\ccE6dbeI.s 			page 7


 225 0070 00080140 		.word	1073809408
 226              		.cfi_endproc
 227              	.LFE66:
 229              		.section	.text.HAL_SPI_MspDeInit,"ax",%progbits
 230              		.align	1
 231              		.global	HAL_SPI_MspDeInit
 232              		.syntax unified
 233              		.thumb
 234              		.thumb_func
 236              	HAL_SPI_MspDeInit:
 237              	.LVL8:
 238              	.LFB67:
  94:Core/Src/spi.c **** 
  95:Core/Src/spi.c **** void HAL_SPI_MspDeInit(SPI_HandleTypeDef *spiHandle)
  96:Core/Src/spi.c **** {
 239              		.loc 1 96 1 is_stmt 1 view -0
 240              		.cfi_startproc
 241              		@ args = 0, pretend = 0, frame = 0
 242              		@ frame_needed = 0, uses_anonymous_args = 0
 243              		.loc 1 96 1 is_stmt 0 view .LVU68
 244 0000 08B5     		push	{r3, lr}
 245              	.LCFI5:
 246              		.cfi_def_cfa_offset 8
 247              		.cfi_offset 3, -8
 248              		.cfi_offset 14, -4
  97:Core/Src/spi.c **** 
  98:Core/Src/spi.c ****   if (spiHandle->Instance == SPI1)
 249              		.loc 1 98 3 is_stmt 1 view .LVU69
 250              		.loc 1 98 16 is_stmt 0 view .LVU70
 251 0002 0268     		ldr	r2, [r0]
 252              		.loc 1 98 6 view .LVU71
 253 0004 064B     		ldr	r3, .L17
 254 0006 9A42     		cmp	r2, r3
 255 0008 00D0     		beq	.L16
 256              	.LVL9:
 257              	.L13:
  99:Core/Src/spi.c ****   {
 100:Core/Src/spi.c ****     /* USER CODE BEGIN SPI1_MspDeInit 0 */
 101:Core/Src/spi.c **** 
 102:Core/Src/spi.c ****     /* USER CODE END SPI1_MspDeInit 0 */
 103:Core/Src/spi.c ****     /* Peripheral clock disable */
 104:Core/Src/spi.c ****     __HAL_RCC_SPI1_CLK_DISABLE();
 105:Core/Src/spi.c **** 
 106:Core/Src/spi.c ****     /**SPI1 GPIO Configuration
 107:Core/Src/spi.c ****     PA5     ------> SPI1_SCK
 108:Core/Src/spi.c ****     PA6     ------> SPI1_MISO
 109:Core/Src/spi.c ****     PA7     ------> SPI1_MOSI
 110:Core/Src/spi.c ****     */
 111:Core/Src/spi.c ****     HAL_GPIO_DeInit(GPIOA, GPIO_PIN_5 | GPIO_PIN_6 | GPIO_PIN_7);
 112:Core/Src/spi.c **** 
 113:Core/Src/spi.c ****     /* USER CODE BEGIN SPI1_MspDeInit 1 */
 114:Core/Src/spi.c **** 
 115:Core/Src/spi.c ****     /* USER CODE END SPI1_MspDeInit 1 */
 116:Core/Src/spi.c ****   }
 117:Core/Src/spi.c **** }
 258              		.loc 1 117 1 view .LVU72
 259 000a 08BD     		pop	{r3, pc}
ARM GAS  C:\Users\wyx12\AppData\Local\Temp\ccE6dbeI.s 			page 8


 260              	.LVL10:
 261              	.L16:
 104:Core/Src/spi.c **** 
 262              		.loc 1 104 5 is_stmt 1 view .LVU73
 263 000c 054A     		ldr	r2, .L17+4
 264 000e 9369     		ldr	r3, [r2, #24]
 265 0010 23F48053 		bic	r3, r3, #4096
 266 0014 9361     		str	r3, [r2, #24]
 111:Core/Src/spi.c **** 
 267              		.loc 1 111 5 view .LVU74
 268 0016 E021     		movs	r1, #224
 269 0018 0348     		ldr	r0, .L17+8
 270              	.LVL11:
 111:Core/Src/spi.c **** 
 271              		.loc 1 111 5 is_stmt 0 view .LVU75
 272 001a FFF7FEFF 		bl	HAL_GPIO_DeInit
 273              	.LVL12:
 274              		.loc 1 117 1 view .LVU76
 275 001e F4E7     		b	.L13
 276              	.L18:
 277              		.align	2
 278              	.L17:
 279 0020 00300140 		.word	1073819648
 280 0024 00100240 		.word	1073876992
 281 0028 00080140 		.word	1073809408
 282              		.cfi_endproc
 283              	.LFE67:
 285              		.section	.text.SpiInOut,"ax",%progbits
 286              		.align	1
 287              		.global	SpiInOut
 288              		.syntax unified
 289              		.thumb
 290              		.thumb_func
 292              	SpiInOut:
 293              	.LVL13:
 294              	.LFB68:
 118:Core/Src/spi.c **** 
 119:Core/Src/spi.c **** /* USER CODE BEGIN 1 */
 120:Core/Src/spi.c **** uint8_t SpiInOut(uint8_t outData)
 121:Core/Src/spi.c **** {
 295              		.loc 1 121 1 is_stmt 1 view -0
 296              		.cfi_startproc
 297              		@ args = 0, pretend = 0, frame = 16
 298              		@ frame_needed = 0, uses_anonymous_args = 0
 299              		.loc 1 121 1 is_stmt 0 view .LVU78
 300 0000 00B5     		push	{lr}
 301              	.LCFI6:
 302              		.cfi_def_cfa_offset 4
 303              		.cfi_offset 14, -4
 304 0002 87B0     		sub	sp, sp, #28
 305              	.LCFI7:
 306              		.cfi_def_cfa_offset 32
 307 0004 8DF80F00 		strb	r0, [sp, #15]
 122:Core/Src/spi.c ****   uint8_t pData = 0;
 308              		.loc 1 122 3 is_stmt 1 view .LVU79
 309              		.loc 1 122 11 is_stmt 0 view .LVU80
 310 0008 0023     		movs	r3, #0
ARM GAS  C:\Users\wyx12\AppData\Local\Temp\ccE6dbeI.s 			page 9


 311 000a 8DF81730 		strb	r3, [sp, #23]
 123:Core/Src/spi.c ****   if (HAL_SPI_TransmitReceive(&hspi1, &outData, &pData, 1, 0xffff) != HAL_OK)
 312              		.loc 1 123 3 is_stmt 1 view .LVU81
 313              		.loc 1 123 7 is_stmt 0 view .LVU82
 314 000e 4FF6FF73 		movw	r3, #65535
 315 0012 0093     		str	r3, [sp]
 316 0014 0123     		movs	r3, #1
 317 0016 0DF11702 		add	r2, sp, #23
 318 001a 0DF10F01 		add	r1, sp, #15
 319 001e 0548     		ldr	r0, .L23
 320              	.LVL14:
 321              		.loc 1 123 7 view .LVU83
 322 0020 FFF7FEFF 		bl	HAL_SPI_TransmitReceive
 323              	.LVL15:
 324              		.loc 1 123 6 view .LVU84
 325 0024 20B9     		cbnz	r0, .L21
 124:Core/Src/spi.c ****     return ERROR;
 125:Core/Src/spi.c ****   else
 126:Core/Src/spi.c ****     return pData;
 326              		.loc 1 126 5 is_stmt 1 view .LVU85
 327              		.loc 1 126 12 is_stmt 0 view .LVU86
 328 0026 9DF81700 		ldrb	r0, [sp, #23]	@ zero_extendqisi2
 329              	.L20:
 127:Core/Src/spi.c **** }
 330              		.loc 1 127 1 view .LVU87
 331 002a 07B0     		add	sp, sp, #28
 332              	.LCFI8:
 333              		.cfi_remember_state
 334              		.cfi_def_cfa_offset 4
 335              		@ sp needed
 336 002c 5DF804FB 		ldr	pc, [sp], #4
 337              	.L21:
 338              	.LCFI9:
 339              		.cfi_restore_state
 124:Core/Src/spi.c ****     return ERROR;
 340              		.loc 1 124 12 view .LVU88
 341 0030 0120     		movs	r0, #1
 342 0032 FAE7     		b	.L20
 343              	.L24:
 344              		.align	2
 345              	.L23:
 346 0034 00000000 		.word	hspi1
 347              		.cfi_endproc
 348              	.LFE68:
 350              		.global	hspi1
 351              		.section	.bss.hspi1,"aw",%nobits
 352              		.align	2
 355              	hspi1:
 356 0000 00000000 		.space	88
 356      00000000 
 356      00000000 
 356      00000000 
 356      00000000 
 357              		.text
 358              	.Letext0:
 359              		.file 2 "c:\\program files (x86)\\arm gnu toolchain arm-none-eabi\\12.2 rel1\\arm-none-eabi\\inclu
 360              		.file 3 "c:\\program files (x86)\\arm gnu toolchain arm-none-eabi\\12.2 rel1\\arm-none-eabi\\inclu
ARM GAS  C:\Users\wyx12\AppData\Local\Temp\ccE6dbeI.s 			page 10


 361              		.file 4 "Drivers/CMSIS/Device/ST/STM32F1xx/Include/stm32f103xe.h"
 362              		.file 5 "Drivers/CMSIS/Device/ST/STM32F1xx/Include/stm32f1xx.h"
 363              		.file 6 "Drivers/STM32F1xx_HAL_Driver/Inc/stm32f1xx_hal_def.h"
 364              		.file 7 "Drivers/STM32F1xx_HAL_Driver/Inc/stm32f1xx_hal_gpio.h"
 365              		.file 8 "Drivers/STM32F1xx_HAL_Driver/Inc/stm32f1xx_hal_dma.h"
 366              		.file 9 "Drivers/STM32F1xx_HAL_Driver/Inc/stm32f1xx_hal_spi.h"
 367              		.file 10 "Core/Inc/spi.h"
 368              		.file 11 "Core/Inc/main.h"
ARM GAS  C:\Users\wyx12\AppData\Local\Temp\ccE6dbeI.s 			page 11

