ARM GAS  C:\Users\wyx12\AppData\Local\Temp\ccMKDd7z.s 			page 1


   1              		.cpu cortex-m3
   2              		.arch armv7-m
   3              		.fpu softvfp
   4              		.eabi_attribute 20, 1
   5              		.eabi_attribute 21, 1
   6              		.eabi_attribute 23, 3
   7              		.eabi_attribute 24, 1
   8              		.eabi_attribute 25, 1
   9              		.eabi_attribute 26, 1
  10              		.eabi_attribute 30, 1
  11              		.eabi_attribute 34, 1
  12              		.eabi_attribute 18, 4
  13              		.file	"stm32f1xx_hal_adc_ex.c"
  14              		.text
  15              	.Ltext0:
  16              		.cfi_sections	.debug_frame
  17              		.file 1 "Drivers/STM32F1xx_HAL_Driver/Src/stm32f1xx_hal_adc_ex.c"
  18              		.section	.text.HAL_ADCEx_Calibration_Start,"ax",%progbits
  19              		.align	1
  20              		.global	HAL_ADCEx_Calibration_Start
  21              		.syntax unified
  22              		.thumb
  23              		.thumb_func
  25              	HAL_ADCEx_Calibration_Start:
  26              	.LVL0:
  27              	.LFB65:
   1:Drivers/STM32F1xx_HAL_Driver/Src/stm32f1xx_hal_adc_ex.c **** /**
   2:Drivers/STM32F1xx_HAL_Driver/Src/stm32f1xx_hal_adc_ex.c ****   ******************************************************************************
   3:Drivers/STM32F1xx_HAL_Driver/Src/stm32f1xx_hal_adc_ex.c ****   * @file    stm32f1xx_hal_adc_ex.c
   4:Drivers/STM32F1xx_HAL_Driver/Src/stm32f1xx_hal_adc_ex.c ****   * @author  MCD Application Team
   5:Drivers/STM32F1xx_HAL_Driver/Src/stm32f1xx_hal_adc_ex.c ****   * @brief   This file provides firmware functions to manage the following 
   6:Drivers/STM32F1xx_HAL_Driver/Src/stm32f1xx_hal_adc_ex.c ****   *          functionalities of the Analog to Digital Convertor (ADC)
   7:Drivers/STM32F1xx_HAL_Driver/Src/stm32f1xx_hal_adc_ex.c ****   *          peripheral:
   8:Drivers/STM32F1xx_HAL_Driver/Src/stm32f1xx_hal_adc_ex.c ****   *           + Peripheral Control functions
   9:Drivers/STM32F1xx_HAL_Driver/Src/stm32f1xx_hal_adc_ex.c ****   *          Other functions (generic functions) are available in file 
  10:Drivers/STM32F1xx_HAL_Driver/Src/stm32f1xx_hal_adc_ex.c ****   *          "stm32f1xx_hal_adc.c".
  11:Drivers/STM32F1xx_HAL_Driver/Src/stm32f1xx_hal_adc_ex.c ****   *
  12:Drivers/STM32F1xx_HAL_Driver/Src/stm32f1xx_hal_adc_ex.c ****   ******************************************************************************
  13:Drivers/STM32F1xx_HAL_Driver/Src/stm32f1xx_hal_adc_ex.c ****   * @attention
  14:Drivers/STM32F1xx_HAL_Driver/Src/stm32f1xx_hal_adc_ex.c ****   *
  15:Drivers/STM32F1xx_HAL_Driver/Src/stm32f1xx_hal_adc_ex.c ****   * Copyright (c) 2016 STMicroelectronics.
  16:Drivers/STM32F1xx_HAL_Driver/Src/stm32f1xx_hal_adc_ex.c ****   * All rights reserved.
  17:Drivers/STM32F1xx_HAL_Driver/Src/stm32f1xx_hal_adc_ex.c ****   *
  18:Drivers/STM32F1xx_HAL_Driver/Src/stm32f1xx_hal_adc_ex.c ****   * This software is licensed under terms that can be found in the LICENSE file
  19:Drivers/STM32F1xx_HAL_Driver/Src/stm32f1xx_hal_adc_ex.c ****   * in the root directory of this software component.
  20:Drivers/STM32F1xx_HAL_Driver/Src/stm32f1xx_hal_adc_ex.c ****   * If no LICENSE file comes with this software, it is provided AS-IS.
  21:Drivers/STM32F1xx_HAL_Driver/Src/stm32f1xx_hal_adc_ex.c ****   *
  22:Drivers/STM32F1xx_HAL_Driver/Src/stm32f1xx_hal_adc_ex.c ****   ******************************************************************************
  23:Drivers/STM32F1xx_HAL_Driver/Src/stm32f1xx_hal_adc_ex.c ****   @verbatim
  24:Drivers/STM32F1xx_HAL_Driver/Src/stm32f1xx_hal_adc_ex.c ****   [..] 
  25:Drivers/STM32F1xx_HAL_Driver/Src/stm32f1xx_hal_adc_ex.c ****   (@) Sections "ADC peripheral features" and "How to use this driver" are
  26:Drivers/STM32F1xx_HAL_Driver/Src/stm32f1xx_hal_adc_ex.c ****       available in file of generic functions "stm32f1xx_hal_adc.c".
  27:Drivers/STM32F1xx_HAL_Driver/Src/stm32f1xx_hal_adc_ex.c ****   [..]
  28:Drivers/STM32F1xx_HAL_Driver/Src/stm32f1xx_hal_adc_ex.c ****   @endverbatim
  29:Drivers/STM32F1xx_HAL_Driver/Src/stm32f1xx_hal_adc_ex.c ****   */
  30:Drivers/STM32F1xx_HAL_Driver/Src/stm32f1xx_hal_adc_ex.c **** 
  31:Drivers/STM32F1xx_HAL_Driver/Src/stm32f1xx_hal_adc_ex.c **** /* Includes ------------------------------------------------------------------*/
ARM GAS  C:\Users\wyx12\AppData\Local\Temp\ccMKDd7z.s 			page 2


  32:Drivers/STM32F1xx_HAL_Driver/Src/stm32f1xx_hal_adc_ex.c **** #include "stm32f1xx_hal.h"
  33:Drivers/STM32F1xx_HAL_Driver/Src/stm32f1xx_hal_adc_ex.c **** 
  34:Drivers/STM32F1xx_HAL_Driver/Src/stm32f1xx_hal_adc_ex.c **** /** @addtogroup STM32F1xx_HAL_Driver
  35:Drivers/STM32F1xx_HAL_Driver/Src/stm32f1xx_hal_adc_ex.c ****   * @{
  36:Drivers/STM32F1xx_HAL_Driver/Src/stm32f1xx_hal_adc_ex.c ****   */
  37:Drivers/STM32F1xx_HAL_Driver/Src/stm32f1xx_hal_adc_ex.c **** 
  38:Drivers/STM32F1xx_HAL_Driver/Src/stm32f1xx_hal_adc_ex.c **** /** @defgroup ADCEx ADCEx
  39:Drivers/STM32F1xx_HAL_Driver/Src/stm32f1xx_hal_adc_ex.c ****   * @brief ADC Extension HAL module driver
  40:Drivers/STM32F1xx_HAL_Driver/Src/stm32f1xx_hal_adc_ex.c ****   * @{
  41:Drivers/STM32F1xx_HAL_Driver/Src/stm32f1xx_hal_adc_ex.c ****   */
  42:Drivers/STM32F1xx_HAL_Driver/Src/stm32f1xx_hal_adc_ex.c **** 
  43:Drivers/STM32F1xx_HAL_Driver/Src/stm32f1xx_hal_adc_ex.c **** #ifdef HAL_ADC_MODULE_ENABLED
  44:Drivers/STM32F1xx_HAL_Driver/Src/stm32f1xx_hal_adc_ex.c **** 
  45:Drivers/STM32F1xx_HAL_Driver/Src/stm32f1xx_hal_adc_ex.c **** /* Private typedef -----------------------------------------------------------*/
  46:Drivers/STM32F1xx_HAL_Driver/Src/stm32f1xx_hal_adc_ex.c **** /* Private define ------------------------------------------------------------*/
  47:Drivers/STM32F1xx_HAL_Driver/Src/stm32f1xx_hal_adc_ex.c **** /** @defgroup ADCEx_Private_Constants ADCEx Private Constants
  48:Drivers/STM32F1xx_HAL_Driver/Src/stm32f1xx_hal_adc_ex.c ****   * @{
  49:Drivers/STM32F1xx_HAL_Driver/Src/stm32f1xx_hal_adc_ex.c ****   */
  50:Drivers/STM32F1xx_HAL_Driver/Src/stm32f1xx_hal_adc_ex.c **** 
  51:Drivers/STM32F1xx_HAL_Driver/Src/stm32f1xx_hal_adc_ex.c ****   /* Delay for ADC calibration:                                               */
  52:Drivers/STM32F1xx_HAL_Driver/Src/stm32f1xx_hal_adc_ex.c ****   /* Hardware prerequisite before starting a calibration: the ADC must have   */
  53:Drivers/STM32F1xx_HAL_Driver/Src/stm32f1xx_hal_adc_ex.c ****   /* been in power-on state for at least two ADC clock cycles.                */
  54:Drivers/STM32F1xx_HAL_Driver/Src/stm32f1xx_hal_adc_ex.c ****   /* Unit: ADC clock cycles                                                   */
  55:Drivers/STM32F1xx_HAL_Driver/Src/stm32f1xx_hal_adc_ex.c ****   #define ADC_PRECALIBRATION_DELAY_ADCCLOCKCYCLES       2U
  56:Drivers/STM32F1xx_HAL_Driver/Src/stm32f1xx_hal_adc_ex.c **** 
  57:Drivers/STM32F1xx_HAL_Driver/Src/stm32f1xx_hal_adc_ex.c ****   /* Timeout value for ADC calibration                                        */
  58:Drivers/STM32F1xx_HAL_Driver/Src/stm32f1xx_hal_adc_ex.c ****   /* Value defined to be higher than worst cases: low clocks freq,            */
  59:Drivers/STM32F1xx_HAL_Driver/Src/stm32f1xx_hal_adc_ex.c ****   /* maximum prescaler.                                                       */
  60:Drivers/STM32F1xx_HAL_Driver/Src/stm32f1xx_hal_adc_ex.c ****   /* Ex of profile low frequency : Clock source at 0.1 MHz, ADC clock         */
  61:Drivers/STM32F1xx_HAL_Driver/Src/stm32f1xx_hal_adc_ex.c ****   /* prescaler 4, sampling time 12.5 ADC clock cycles, resolution 12 bits.    */
  62:Drivers/STM32F1xx_HAL_Driver/Src/stm32f1xx_hal_adc_ex.c ****   /* Unit: ms                                                                 */
  63:Drivers/STM32F1xx_HAL_Driver/Src/stm32f1xx_hal_adc_ex.c ****   #define ADC_CALIBRATION_TIMEOUT          10U
  64:Drivers/STM32F1xx_HAL_Driver/Src/stm32f1xx_hal_adc_ex.c **** 
  65:Drivers/STM32F1xx_HAL_Driver/Src/stm32f1xx_hal_adc_ex.c ****   /* Delay for temperature sensor stabilization time.                         */
  66:Drivers/STM32F1xx_HAL_Driver/Src/stm32f1xx_hal_adc_ex.c ****   /* Maximum delay is 10us (refer to device datasheet, parameter tSTART).     */
  67:Drivers/STM32F1xx_HAL_Driver/Src/stm32f1xx_hal_adc_ex.c ****   /* Unit: us                                                                 */
  68:Drivers/STM32F1xx_HAL_Driver/Src/stm32f1xx_hal_adc_ex.c ****   #define ADC_TEMPSENSOR_DELAY_US         10U
  69:Drivers/STM32F1xx_HAL_Driver/Src/stm32f1xx_hal_adc_ex.c **** 
  70:Drivers/STM32F1xx_HAL_Driver/Src/stm32f1xx_hal_adc_ex.c **** /**
  71:Drivers/STM32F1xx_HAL_Driver/Src/stm32f1xx_hal_adc_ex.c ****   * @}
  72:Drivers/STM32F1xx_HAL_Driver/Src/stm32f1xx_hal_adc_ex.c ****   */
  73:Drivers/STM32F1xx_HAL_Driver/Src/stm32f1xx_hal_adc_ex.c **** 
  74:Drivers/STM32F1xx_HAL_Driver/Src/stm32f1xx_hal_adc_ex.c **** /* Private macro -------------------------------------------------------------*/
  75:Drivers/STM32F1xx_HAL_Driver/Src/stm32f1xx_hal_adc_ex.c **** /* Private variables ---------------------------------------------------------*/
  76:Drivers/STM32F1xx_HAL_Driver/Src/stm32f1xx_hal_adc_ex.c **** /* Private function prototypes -----------------------------------------------*/
  77:Drivers/STM32F1xx_HAL_Driver/Src/stm32f1xx_hal_adc_ex.c **** /* Private functions ---------------------------------------------------------*/
  78:Drivers/STM32F1xx_HAL_Driver/Src/stm32f1xx_hal_adc_ex.c **** 
  79:Drivers/STM32F1xx_HAL_Driver/Src/stm32f1xx_hal_adc_ex.c **** /** @defgroup ADCEx_Exported_Functions ADCEx Exported Functions
  80:Drivers/STM32F1xx_HAL_Driver/Src/stm32f1xx_hal_adc_ex.c ****   * @{
  81:Drivers/STM32F1xx_HAL_Driver/Src/stm32f1xx_hal_adc_ex.c ****   */
  82:Drivers/STM32F1xx_HAL_Driver/Src/stm32f1xx_hal_adc_ex.c **** 
  83:Drivers/STM32F1xx_HAL_Driver/Src/stm32f1xx_hal_adc_ex.c **** /** @defgroup ADCEx_Exported_Functions_Group1 Extended Extended IO operation functions
  84:Drivers/STM32F1xx_HAL_Driver/Src/stm32f1xx_hal_adc_ex.c ****  *  @brief    Extended Extended Input and Output operation functions
  85:Drivers/STM32F1xx_HAL_Driver/Src/stm32f1xx_hal_adc_ex.c ****  *
  86:Drivers/STM32F1xx_HAL_Driver/Src/stm32f1xx_hal_adc_ex.c **** @verbatim    
  87:Drivers/STM32F1xx_HAL_Driver/Src/stm32f1xx_hal_adc_ex.c ****  ===============================================================================
  88:Drivers/STM32F1xx_HAL_Driver/Src/stm32f1xx_hal_adc_ex.c ****                       ##### IO operation functions #####
ARM GAS  C:\Users\wyx12\AppData\Local\Temp\ccMKDd7z.s 			page 3


  89:Drivers/STM32F1xx_HAL_Driver/Src/stm32f1xx_hal_adc_ex.c ****  ===============================================================================
  90:Drivers/STM32F1xx_HAL_Driver/Src/stm32f1xx_hal_adc_ex.c ****     [..]  This section provides functions allowing to:
  91:Drivers/STM32F1xx_HAL_Driver/Src/stm32f1xx_hal_adc_ex.c ****       (+) Start conversion of injected group.
  92:Drivers/STM32F1xx_HAL_Driver/Src/stm32f1xx_hal_adc_ex.c ****       (+) Stop conversion of injected group.
  93:Drivers/STM32F1xx_HAL_Driver/Src/stm32f1xx_hal_adc_ex.c ****       (+) Poll for conversion complete on injected group.
  94:Drivers/STM32F1xx_HAL_Driver/Src/stm32f1xx_hal_adc_ex.c ****       (+) Get result of injected channel conversion.
  95:Drivers/STM32F1xx_HAL_Driver/Src/stm32f1xx_hal_adc_ex.c ****       (+) Start conversion of injected group and enable interruptions.
  96:Drivers/STM32F1xx_HAL_Driver/Src/stm32f1xx_hal_adc_ex.c ****       (+) Stop conversion of injected group and disable interruptions.
  97:Drivers/STM32F1xx_HAL_Driver/Src/stm32f1xx_hal_adc_ex.c **** 
  98:Drivers/STM32F1xx_HAL_Driver/Src/stm32f1xx_hal_adc_ex.c ****       (+) Start multimode and enable DMA transfer.
  99:Drivers/STM32F1xx_HAL_Driver/Src/stm32f1xx_hal_adc_ex.c ****       (+) Stop multimode and disable ADC DMA transfer.
 100:Drivers/STM32F1xx_HAL_Driver/Src/stm32f1xx_hal_adc_ex.c ****       (+) Get result of multimode conversion.
 101:Drivers/STM32F1xx_HAL_Driver/Src/stm32f1xx_hal_adc_ex.c **** 
 102:Drivers/STM32F1xx_HAL_Driver/Src/stm32f1xx_hal_adc_ex.c ****       (+) Perform the ADC self-calibration for single or differential ending.
 103:Drivers/STM32F1xx_HAL_Driver/Src/stm32f1xx_hal_adc_ex.c ****       (+) Get calibration factors for single or differential ending.
 104:Drivers/STM32F1xx_HAL_Driver/Src/stm32f1xx_hal_adc_ex.c ****       (+) Set calibration factors for single or differential ending.
 105:Drivers/STM32F1xx_HAL_Driver/Src/stm32f1xx_hal_adc_ex.c ****       
 106:Drivers/STM32F1xx_HAL_Driver/Src/stm32f1xx_hal_adc_ex.c **** @endverbatim
 107:Drivers/STM32F1xx_HAL_Driver/Src/stm32f1xx_hal_adc_ex.c ****   * @{
 108:Drivers/STM32F1xx_HAL_Driver/Src/stm32f1xx_hal_adc_ex.c ****   */
 109:Drivers/STM32F1xx_HAL_Driver/Src/stm32f1xx_hal_adc_ex.c **** 
 110:Drivers/STM32F1xx_HAL_Driver/Src/stm32f1xx_hal_adc_ex.c **** /**
 111:Drivers/STM32F1xx_HAL_Driver/Src/stm32f1xx_hal_adc_ex.c ****   * @brief  Perform an ADC automatic self-calibration
 112:Drivers/STM32F1xx_HAL_Driver/Src/stm32f1xx_hal_adc_ex.c ****   *         Calibration prerequisite: ADC must be disabled (execute this
 113:Drivers/STM32F1xx_HAL_Driver/Src/stm32f1xx_hal_adc_ex.c ****   *         function before HAL_ADC_Start() or after HAL_ADC_Stop() ).
 114:Drivers/STM32F1xx_HAL_Driver/Src/stm32f1xx_hal_adc_ex.c ****   *         During calibration process, ADC is enabled. ADC is let enabled at
 115:Drivers/STM32F1xx_HAL_Driver/Src/stm32f1xx_hal_adc_ex.c ****   *         the completion of this function.
 116:Drivers/STM32F1xx_HAL_Driver/Src/stm32f1xx_hal_adc_ex.c ****   * @param  hadc: ADC handle
 117:Drivers/STM32F1xx_HAL_Driver/Src/stm32f1xx_hal_adc_ex.c ****   * @retval HAL status
 118:Drivers/STM32F1xx_HAL_Driver/Src/stm32f1xx_hal_adc_ex.c ****   */
 119:Drivers/STM32F1xx_HAL_Driver/Src/stm32f1xx_hal_adc_ex.c **** HAL_StatusTypeDef HAL_ADCEx_Calibration_Start(ADC_HandleTypeDef* hadc)
 120:Drivers/STM32F1xx_HAL_Driver/Src/stm32f1xx_hal_adc_ex.c **** {
  28              		.loc 1 120 1 view -0
  29              		.cfi_startproc
  30              		@ args = 0, pretend = 0, frame = 8
  31              		@ frame_needed = 0, uses_anonymous_args = 0
  32              		.loc 1 120 1 is_stmt 0 view .LVU1
  33 0000 70B5     		push	{r4, r5, r6, lr}
  34              	.LCFI0:
  35              		.cfi_def_cfa_offset 16
  36              		.cfi_offset 4, -16
  37              		.cfi_offset 5, -12
  38              		.cfi_offset 6, -8
  39              		.cfi_offset 14, -4
  40 0002 82B0     		sub	sp, sp, #8
  41              	.LCFI1:
  42              		.cfi_def_cfa_offset 24
 121:Drivers/STM32F1xx_HAL_Driver/Src/stm32f1xx_hal_adc_ex.c ****   HAL_StatusTypeDef tmp_hal_status = HAL_OK;
  43              		.loc 1 121 3 is_stmt 1 view .LVU2
  44              	.LVL1:
 122:Drivers/STM32F1xx_HAL_Driver/Src/stm32f1xx_hal_adc_ex.c ****   uint32_t tickstart;
  45              		.loc 1 122 3 view .LVU3
 123:Drivers/STM32F1xx_HAL_Driver/Src/stm32f1xx_hal_adc_ex.c ****   __IO uint32_t wait_loop_index = 0U;
  46              		.loc 1 123 3 view .LVU4
  47              		.loc 1 123 17 is_stmt 0 view .LVU5
  48 0004 0023     		movs	r3, #0
  49 0006 0193     		str	r3, [sp, #4]
ARM GAS  C:\Users\wyx12\AppData\Local\Temp\ccMKDd7z.s 			page 4


 124:Drivers/STM32F1xx_HAL_Driver/Src/stm32f1xx_hal_adc_ex.c ****   
 125:Drivers/STM32F1xx_HAL_Driver/Src/stm32f1xx_hal_adc_ex.c ****   /* Check the parameters */
 126:Drivers/STM32F1xx_HAL_Driver/Src/stm32f1xx_hal_adc_ex.c ****   assert_param(IS_ADC_ALL_INSTANCE(hadc->Instance));
  50              		.loc 1 126 3 is_stmt 1 view .LVU6
 127:Drivers/STM32F1xx_HAL_Driver/Src/stm32f1xx_hal_adc_ex.c **** 
 128:Drivers/STM32F1xx_HAL_Driver/Src/stm32f1xx_hal_adc_ex.c ****   /* Process locked */
 129:Drivers/STM32F1xx_HAL_Driver/Src/stm32f1xx_hal_adc_ex.c ****   __HAL_LOCK(hadc);
  51              		.loc 1 129 3 view .LVU7
  52              		.loc 1 129 3 view .LVU8
  53 0008 90F82430 		ldrb	r3, [r0, #36]	@ zero_extendqisi2
  54 000c 012B     		cmp	r3, #1
  55 000e 72D0     		beq	.L10
  56 0010 0446     		mov	r4, r0
  57              		.loc 1 129 3 discriminator 2 view .LVU9
  58 0012 0123     		movs	r3, #1
  59 0014 80F82430 		strb	r3, [r0, #36]
  60              		.loc 1 129 3 discriminator 2 view .LVU10
 130:Drivers/STM32F1xx_HAL_Driver/Src/stm32f1xx_hal_adc_ex.c ****     
 131:Drivers/STM32F1xx_HAL_Driver/Src/stm32f1xx_hal_adc_ex.c ****    /* 1. Disable ADC peripheral                                                 */
 132:Drivers/STM32F1xx_HAL_Driver/Src/stm32f1xx_hal_adc_ex.c ****    tmp_hal_status = ADC_ConversionStop_Disable(hadc);
  61              		.loc 1 132 4 discriminator 2 view .LVU11
  62              		.loc 1 132 21 is_stmt 0 discriminator 2 view .LVU12
  63 0018 FFF7FEFF 		bl	ADC_ConversionStop_Disable
  64              	.LVL2:
 133:Drivers/STM32F1xx_HAL_Driver/Src/stm32f1xx_hal_adc_ex.c ****   
 134:Drivers/STM32F1xx_HAL_Driver/Src/stm32f1xx_hal_adc_ex.c ****    /* 2. Calibration prerequisite delay before starting the calibration.       */
 135:Drivers/STM32F1xx_HAL_Driver/Src/stm32f1xx_hal_adc_ex.c ****    /*    - ADC must be enabled for at least two ADC clock cycles               */
 136:Drivers/STM32F1xx_HAL_Driver/Src/stm32f1xx_hal_adc_ex.c ****    tmp_hal_status = ADC_Enable(hadc);
  65              		.loc 1 136 4 is_stmt 1 discriminator 2 view .LVU13
  66              		.loc 1 136 21 is_stmt 0 discriminator 2 view .LVU14
  67 001c 2046     		mov	r0, r4
  68 001e FFF7FEFF 		bl	ADC_Enable
  69              	.LVL3:
 137:Drivers/STM32F1xx_HAL_Driver/Src/stm32f1xx_hal_adc_ex.c **** 
 138:Drivers/STM32F1xx_HAL_Driver/Src/stm32f1xx_hal_adc_ex.c ****    /* Check if ADC is effectively enabled */
 139:Drivers/STM32F1xx_HAL_Driver/Src/stm32f1xx_hal_adc_ex.c ****    if (tmp_hal_status == HAL_OK)
  70              		.loc 1 139 4 is_stmt 1 discriminator 2 view .LVU15
  71              		.loc 1 139 7 is_stmt 0 discriminator 2 view .LVU16
  72 0022 0546     		mov	r5, r0
  73 0024 28B1     		cbz	r0, .L12
  74              	.LVL4:
  75              	.L3:
 140:Drivers/STM32F1xx_HAL_Driver/Src/stm32f1xx_hal_adc_ex.c ****    {
 141:Drivers/STM32F1xx_HAL_Driver/Src/stm32f1xx_hal_adc_ex.c ****      /* Set ADC state */
 142:Drivers/STM32F1xx_HAL_Driver/Src/stm32f1xx_hal_adc_ex.c ****      ADC_STATE_CLR_SET(hadc->State,
 143:Drivers/STM32F1xx_HAL_Driver/Src/stm32f1xx_hal_adc_ex.c ****                        HAL_ADC_STATE_REG_BUSY | HAL_ADC_STATE_INJ_BUSY,
 144:Drivers/STM32F1xx_HAL_Driver/Src/stm32f1xx_hal_adc_ex.c ****                        HAL_ADC_STATE_BUSY_INTERNAL);
 145:Drivers/STM32F1xx_HAL_Driver/Src/stm32f1xx_hal_adc_ex.c ****     
 146:Drivers/STM32F1xx_HAL_Driver/Src/stm32f1xx_hal_adc_ex.c ****     /* Hardware prerequisite: delay before starting the calibration.          */
 147:Drivers/STM32F1xx_HAL_Driver/Src/stm32f1xx_hal_adc_ex.c ****     /*  - Computation of CPU clock cycles corresponding to ADC clock cycles.  */
 148:Drivers/STM32F1xx_HAL_Driver/Src/stm32f1xx_hal_adc_ex.c ****     /*  - Wait for the expected ADC clock cycles delay */
 149:Drivers/STM32F1xx_HAL_Driver/Src/stm32f1xx_hal_adc_ex.c ****     wait_loop_index = ((SystemCoreClock
 150:Drivers/STM32F1xx_HAL_Driver/Src/stm32f1xx_hal_adc_ex.c ****                         / HAL_RCCEx_GetPeriphCLKFreq(RCC_PERIPHCLK_ADC))
 151:Drivers/STM32F1xx_HAL_Driver/Src/stm32f1xx_hal_adc_ex.c ****                        * ADC_PRECALIBRATION_DELAY_ADCCLOCKCYCLES        );
 152:Drivers/STM32F1xx_HAL_Driver/Src/stm32f1xx_hal_adc_ex.c **** 
 153:Drivers/STM32F1xx_HAL_Driver/Src/stm32f1xx_hal_adc_ex.c ****     while(wait_loop_index != 0U)
 154:Drivers/STM32F1xx_HAL_Driver/Src/stm32f1xx_hal_adc_ex.c ****     {
ARM GAS  C:\Users\wyx12\AppData\Local\Temp\ccMKDd7z.s 			page 5


 155:Drivers/STM32F1xx_HAL_Driver/Src/stm32f1xx_hal_adc_ex.c ****       wait_loop_index--;
 156:Drivers/STM32F1xx_HAL_Driver/Src/stm32f1xx_hal_adc_ex.c ****     }
 157:Drivers/STM32F1xx_HAL_Driver/Src/stm32f1xx_hal_adc_ex.c **** 
 158:Drivers/STM32F1xx_HAL_Driver/Src/stm32f1xx_hal_adc_ex.c ****     /* 3. Resets ADC calibration registers */  
 159:Drivers/STM32F1xx_HAL_Driver/Src/stm32f1xx_hal_adc_ex.c ****     SET_BIT(hadc->Instance->CR2, ADC_CR2_RSTCAL);
 160:Drivers/STM32F1xx_HAL_Driver/Src/stm32f1xx_hal_adc_ex.c ****     
 161:Drivers/STM32F1xx_HAL_Driver/Src/stm32f1xx_hal_adc_ex.c ****     tickstart = HAL_GetTick();  
 162:Drivers/STM32F1xx_HAL_Driver/Src/stm32f1xx_hal_adc_ex.c **** 
 163:Drivers/STM32F1xx_HAL_Driver/Src/stm32f1xx_hal_adc_ex.c ****     /* Wait for calibration reset completion */
 164:Drivers/STM32F1xx_HAL_Driver/Src/stm32f1xx_hal_adc_ex.c ****     while(HAL_IS_BIT_SET(hadc->Instance->CR2, ADC_CR2_RSTCAL))
 165:Drivers/STM32F1xx_HAL_Driver/Src/stm32f1xx_hal_adc_ex.c ****     {
 166:Drivers/STM32F1xx_HAL_Driver/Src/stm32f1xx_hal_adc_ex.c ****       if((HAL_GetTick() - tickstart) > ADC_CALIBRATION_TIMEOUT)
 167:Drivers/STM32F1xx_HAL_Driver/Src/stm32f1xx_hal_adc_ex.c ****       {
 168:Drivers/STM32F1xx_HAL_Driver/Src/stm32f1xx_hal_adc_ex.c ****         /* New check to avoid false timeout detection in case of preemption */
 169:Drivers/STM32F1xx_HAL_Driver/Src/stm32f1xx_hal_adc_ex.c ****         if(HAL_IS_BIT_SET(hadc->Instance->CR2, ADC_CR2_RSTCAL))
 170:Drivers/STM32F1xx_HAL_Driver/Src/stm32f1xx_hal_adc_ex.c ****         {
 171:Drivers/STM32F1xx_HAL_Driver/Src/stm32f1xx_hal_adc_ex.c ****           /* Update ADC state machine to error */
 172:Drivers/STM32F1xx_HAL_Driver/Src/stm32f1xx_hal_adc_ex.c ****           ADC_STATE_CLR_SET(hadc->State,
 173:Drivers/STM32F1xx_HAL_Driver/Src/stm32f1xx_hal_adc_ex.c ****                             HAL_ADC_STATE_BUSY_INTERNAL,
 174:Drivers/STM32F1xx_HAL_Driver/Src/stm32f1xx_hal_adc_ex.c ****                             HAL_ADC_STATE_ERROR_INTERNAL);
 175:Drivers/STM32F1xx_HAL_Driver/Src/stm32f1xx_hal_adc_ex.c **** 
 176:Drivers/STM32F1xx_HAL_Driver/Src/stm32f1xx_hal_adc_ex.c ****           /* Process unlocked */
 177:Drivers/STM32F1xx_HAL_Driver/Src/stm32f1xx_hal_adc_ex.c ****           __HAL_UNLOCK(hadc);
 178:Drivers/STM32F1xx_HAL_Driver/Src/stm32f1xx_hal_adc_ex.c **** 
 179:Drivers/STM32F1xx_HAL_Driver/Src/stm32f1xx_hal_adc_ex.c ****           return HAL_ERROR;
 180:Drivers/STM32F1xx_HAL_Driver/Src/stm32f1xx_hal_adc_ex.c ****         }
 181:Drivers/STM32F1xx_HAL_Driver/Src/stm32f1xx_hal_adc_ex.c ****       }
 182:Drivers/STM32F1xx_HAL_Driver/Src/stm32f1xx_hal_adc_ex.c ****     }
 183:Drivers/STM32F1xx_HAL_Driver/Src/stm32f1xx_hal_adc_ex.c ****     
 184:Drivers/STM32F1xx_HAL_Driver/Src/stm32f1xx_hal_adc_ex.c ****     /* 4. Start ADC calibration */
 185:Drivers/STM32F1xx_HAL_Driver/Src/stm32f1xx_hal_adc_ex.c ****     SET_BIT(hadc->Instance->CR2, ADC_CR2_CAL);
 186:Drivers/STM32F1xx_HAL_Driver/Src/stm32f1xx_hal_adc_ex.c ****     
 187:Drivers/STM32F1xx_HAL_Driver/Src/stm32f1xx_hal_adc_ex.c ****     tickstart = HAL_GetTick();  
 188:Drivers/STM32F1xx_HAL_Driver/Src/stm32f1xx_hal_adc_ex.c **** 
 189:Drivers/STM32F1xx_HAL_Driver/Src/stm32f1xx_hal_adc_ex.c ****     /* Wait for calibration completion */
 190:Drivers/STM32F1xx_HAL_Driver/Src/stm32f1xx_hal_adc_ex.c ****     while(HAL_IS_BIT_SET(hadc->Instance->CR2, ADC_CR2_CAL))
 191:Drivers/STM32F1xx_HAL_Driver/Src/stm32f1xx_hal_adc_ex.c ****     {
 192:Drivers/STM32F1xx_HAL_Driver/Src/stm32f1xx_hal_adc_ex.c ****       if((HAL_GetTick() - tickstart) > ADC_CALIBRATION_TIMEOUT)
 193:Drivers/STM32F1xx_HAL_Driver/Src/stm32f1xx_hal_adc_ex.c ****       {
 194:Drivers/STM32F1xx_HAL_Driver/Src/stm32f1xx_hal_adc_ex.c ****         /* New check to avoid false timeout detection in case of preemption */
 195:Drivers/STM32F1xx_HAL_Driver/Src/stm32f1xx_hal_adc_ex.c ****         if(HAL_IS_BIT_SET(hadc->Instance->CR2, ADC_CR2_CAL))
 196:Drivers/STM32F1xx_HAL_Driver/Src/stm32f1xx_hal_adc_ex.c ****         {
 197:Drivers/STM32F1xx_HAL_Driver/Src/stm32f1xx_hal_adc_ex.c ****           /* Update ADC state machine to error */
 198:Drivers/STM32F1xx_HAL_Driver/Src/stm32f1xx_hal_adc_ex.c ****           ADC_STATE_CLR_SET(hadc->State,
 199:Drivers/STM32F1xx_HAL_Driver/Src/stm32f1xx_hal_adc_ex.c ****                             HAL_ADC_STATE_BUSY_INTERNAL,
 200:Drivers/STM32F1xx_HAL_Driver/Src/stm32f1xx_hal_adc_ex.c ****                             HAL_ADC_STATE_ERROR_INTERNAL);
 201:Drivers/STM32F1xx_HAL_Driver/Src/stm32f1xx_hal_adc_ex.c **** 
 202:Drivers/STM32F1xx_HAL_Driver/Src/stm32f1xx_hal_adc_ex.c ****           /* Process unlocked */
 203:Drivers/STM32F1xx_HAL_Driver/Src/stm32f1xx_hal_adc_ex.c ****           __HAL_UNLOCK(hadc);
 204:Drivers/STM32F1xx_HAL_Driver/Src/stm32f1xx_hal_adc_ex.c **** 
 205:Drivers/STM32F1xx_HAL_Driver/Src/stm32f1xx_hal_adc_ex.c ****           return HAL_ERROR;
 206:Drivers/STM32F1xx_HAL_Driver/Src/stm32f1xx_hal_adc_ex.c ****         }
 207:Drivers/STM32F1xx_HAL_Driver/Src/stm32f1xx_hal_adc_ex.c ****       }
 208:Drivers/STM32F1xx_HAL_Driver/Src/stm32f1xx_hal_adc_ex.c ****     }
 209:Drivers/STM32F1xx_HAL_Driver/Src/stm32f1xx_hal_adc_ex.c ****     
 210:Drivers/STM32F1xx_HAL_Driver/Src/stm32f1xx_hal_adc_ex.c ****     /* Set ADC state */
 211:Drivers/STM32F1xx_HAL_Driver/Src/stm32f1xx_hal_adc_ex.c ****     ADC_STATE_CLR_SET(hadc->State,
ARM GAS  C:\Users\wyx12\AppData\Local\Temp\ccMKDd7z.s 			page 6


 212:Drivers/STM32F1xx_HAL_Driver/Src/stm32f1xx_hal_adc_ex.c ****                       HAL_ADC_STATE_BUSY_INTERNAL,
 213:Drivers/STM32F1xx_HAL_Driver/Src/stm32f1xx_hal_adc_ex.c ****                       HAL_ADC_STATE_READY);
 214:Drivers/STM32F1xx_HAL_Driver/Src/stm32f1xx_hal_adc_ex.c ****   }
 215:Drivers/STM32F1xx_HAL_Driver/Src/stm32f1xx_hal_adc_ex.c ****   
 216:Drivers/STM32F1xx_HAL_Driver/Src/stm32f1xx_hal_adc_ex.c ****   /* Process unlocked */
 217:Drivers/STM32F1xx_HAL_Driver/Src/stm32f1xx_hal_adc_ex.c ****   __HAL_UNLOCK(hadc);
  76              		.loc 1 217 3 is_stmt 1 view .LVU17
  77              		.loc 1 217 3 view .LVU18
  78 0026 0023     		movs	r3, #0
  79 0028 84F82430 		strb	r3, [r4, #36]
  80              		.loc 1 217 3 view .LVU19
 218:Drivers/STM32F1xx_HAL_Driver/Src/stm32f1xx_hal_adc_ex.c ****   
 219:Drivers/STM32F1xx_HAL_Driver/Src/stm32f1xx_hal_adc_ex.c ****   /* Return function status */
 220:Drivers/STM32F1xx_HAL_Driver/Src/stm32f1xx_hal_adc_ex.c ****   return tmp_hal_status;
  81              		.loc 1 220 3 view .LVU20
  82              	.LVL5:
  83              	.L2:
 221:Drivers/STM32F1xx_HAL_Driver/Src/stm32f1xx_hal_adc_ex.c **** }
  84              		.loc 1 221 1 is_stmt 0 view .LVU21
  85 002c 2846     		mov	r0, r5
  86 002e 02B0     		add	sp, sp, #8
  87              	.LCFI2:
  88              		.cfi_remember_state
  89              		.cfi_def_cfa_offset 16
  90              		@ sp needed
  91 0030 70BD     		pop	{r4, r5, r6, pc}
  92              	.LVL6:
  93              	.L12:
  94              	.LCFI3:
  95              		.cfi_restore_state
 142:Drivers/STM32F1xx_HAL_Driver/Src/stm32f1xx_hal_adc_ex.c ****                        HAL_ADC_STATE_REG_BUSY | HAL_ADC_STATE_INJ_BUSY,
  96              		.loc 1 142 6 is_stmt 1 view .LVU22
  97 0032 A36A     		ldr	r3, [r4, #40]
  98 0034 23F48853 		bic	r3, r3, #4352
  99 0038 23F00203 		bic	r3, r3, #2
 100 003c 43F00203 		orr	r3, r3, #2
 101 0040 A362     		str	r3, [r4, #40]
 149:Drivers/STM32F1xx_HAL_Driver/Src/stm32f1xx_hal_adc_ex.c ****                         / HAL_RCCEx_GetPeriphCLKFreq(RCC_PERIPHCLK_ADC))
 102              		.loc 1 149 5 view .LVU23
 150:Drivers/STM32F1xx_HAL_Driver/Src/stm32f1xx_hal_adc_ex.c ****                        * ADC_PRECALIBRATION_DELAY_ADCCLOCKCYCLES        );
 103              		.loc 1 150 25 is_stmt 0 view .LVU24
 104 0042 2E4B     		ldr	r3, .L15
 105 0044 1E68     		ldr	r6, [r3]
 150:Drivers/STM32F1xx_HAL_Driver/Src/stm32f1xx_hal_adc_ex.c ****                        * ADC_PRECALIBRATION_DELAY_ADCCLOCKCYCLES        );
 106              		.loc 1 150 27 view .LVU25
 107 0046 0220     		movs	r0, #2
 108              	.LVL7:
 150:Drivers/STM32F1xx_HAL_Driver/Src/stm32f1xx_hal_adc_ex.c ****                        * ADC_PRECALIBRATION_DELAY_ADCCLOCKCYCLES        );
 109              		.loc 1 150 27 view .LVU26
 110 0048 FFF7FEFF 		bl	HAL_RCCEx_GetPeriphCLKFreq
 111              	.LVL8:
 150:Drivers/STM32F1xx_HAL_Driver/Src/stm32f1xx_hal_adc_ex.c ****                        * ADC_PRECALIBRATION_DELAY_ADCCLOCKCYCLES        );
 112              		.loc 1 150 25 view .LVU27
 113 004c B6FBF0F6 		udiv	r6, r6, r0
 151:Drivers/STM32F1xx_HAL_Driver/Src/stm32f1xx_hal_adc_ex.c **** 
 114              		.loc 1 151 24 view .LVU28
 115 0050 7600     		lsls	r6, r6, #1
ARM GAS  C:\Users\wyx12\AppData\Local\Temp\ccMKDd7z.s 			page 7


 149:Drivers/STM32F1xx_HAL_Driver/Src/stm32f1xx_hal_adc_ex.c ****                         / HAL_RCCEx_GetPeriphCLKFreq(RCC_PERIPHCLK_ADC))
 116              		.loc 1 149 21 view .LVU29
 117 0052 0196     		str	r6, [sp, #4]
 153:Drivers/STM32F1xx_HAL_Driver/Src/stm32f1xx_hal_adc_ex.c ****     {
 118              		.loc 1 153 5 is_stmt 1 view .LVU30
 153:Drivers/STM32F1xx_HAL_Driver/Src/stm32f1xx_hal_adc_ex.c ****     {
 119              		.loc 1 153 10 is_stmt 0 view .LVU31
 120 0054 02E0     		b	.L4
 121              	.L5:
 155:Drivers/STM32F1xx_HAL_Driver/Src/stm32f1xx_hal_adc_ex.c ****     }
 122              		.loc 1 155 7 is_stmt 1 view .LVU32
 155:Drivers/STM32F1xx_HAL_Driver/Src/stm32f1xx_hal_adc_ex.c ****     }
 123              		.loc 1 155 22 is_stmt 0 view .LVU33
 124 0056 019B     		ldr	r3, [sp, #4]
 125 0058 013B     		subs	r3, r3, #1
 126 005a 0193     		str	r3, [sp, #4]
 127              	.L4:
 153:Drivers/STM32F1xx_HAL_Driver/Src/stm32f1xx_hal_adc_ex.c ****     {
 128              		.loc 1 153 27 is_stmt 1 view .LVU34
 129 005c 019B     		ldr	r3, [sp, #4]
 130 005e 002B     		cmp	r3, #0
 131 0060 F9D1     		bne	.L5
 159:Drivers/STM32F1xx_HAL_Driver/Src/stm32f1xx_hal_adc_ex.c ****     
 132              		.loc 1 159 5 view .LVU35
 133 0062 2268     		ldr	r2, [r4]
 134 0064 9368     		ldr	r3, [r2, #8]
 135 0066 43F00803 		orr	r3, r3, #8
 136 006a 9360     		str	r3, [r2, #8]
 161:Drivers/STM32F1xx_HAL_Driver/Src/stm32f1xx_hal_adc_ex.c **** 
 137              		.loc 1 161 5 view .LVU36
 161:Drivers/STM32F1xx_HAL_Driver/Src/stm32f1xx_hal_adc_ex.c **** 
 138              		.loc 1 161 17 is_stmt 0 view .LVU37
 139 006c FFF7FEFF 		bl	HAL_GetTick
 140              	.LVL9:
 141 0070 0646     		mov	r6, r0
 142              	.LVL10:
 164:Drivers/STM32F1xx_HAL_Driver/Src/stm32f1xx_hal_adc_ex.c ****     {
 143              		.loc 1 164 5 is_stmt 1 view .LVU38
 144              	.L6:
 164:Drivers/STM32F1xx_HAL_Driver/Src/stm32f1xx_hal_adc_ex.c ****     {
 145              		.loc 1 164 11 view .LVU39
 146 0072 2368     		ldr	r3, [r4]
 147 0074 9A68     		ldr	r2, [r3, #8]
 148 0076 12F0080F 		tst	r2, #8
 149 007a 14D0     		beq	.L13
 166:Drivers/STM32F1xx_HAL_Driver/Src/stm32f1xx_hal_adc_ex.c ****       {
 150              		.loc 1 166 7 view .LVU40
 166:Drivers/STM32F1xx_HAL_Driver/Src/stm32f1xx_hal_adc_ex.c ****       {
 151              		.loc 1 166 11 is_stmt 0 view .LVU41
 152 007c FFF7FEFF 		bl	HAL_GetTick
 153              	.LVL11:
 166:Drivers/STM32F1xx_HAL_Driver/Src/stm32f1xx_hal_adc_ex.c ****       {
 154              		.loc 1 166 25 view .LVU42
 155 0080 801B     		subs	r0, r0, r6
 166:Drivers/STM32F1xx_HAL_Driver/Src/stm32f1xx_hal_adc_ex.c ****       {
 156              		.loc 1 166 9 view .LVU43
 157 0082 0A28     		cmp	r0, #10
ARM GAS  C:\Users\wyx12\AppData\Local\Temp\ccMKDd7z.s 			page 8


 158 0084 F5D9     		bls	.L6
 169:Drivers/STM32F1xx_HAL_Driver/Src/stm32f1xx_hal_adc_ex.c ****         {
 159              		.loc 1 169 9 is_stmt 1 view .LVU44
 169:Drivers/STM32F1xx_HAL_Driver/Src/stm32f1xx_hal_adc_ex.c ****         {
 160              		.loc 1 169 12 is_stmt 0 view .LVU45
 161 0086 2368     		ldr	r3, [r4]
 162 0088 9B68     		ldr	r3, [r3, #8]
 169:Drivers/STM32F1xx_HAL_Driver/Src/stm32f1xx_hal_adc_ex.c ****         {
 163              		.loc 1 169 11 view .LVU46
 164 008a 13F0080F 		tst	r3, #8
 165 008e F0D0     		beq	.L6
 172:Drivers/STM32F1xx_HAL_Driver/Src/stm32f1xx_hal_adc_ex.c ****                             HAL_ADC_STATE_BUSY_INTERNAL,
 166              		.loc 1 172 11 is_stmt 1 view .LVU47
 167 0090 A36A     		ldr	r3, [r4, #40]
 168 0092 23F01203 		bic	r3, r3, #18
 169 0096 43F01003 		orr	r3, r3, #16
 170 009a A362     		str	r3, [r4, #40]
 177:Drivers/STM32F1xx_HAL_Driver/Src/stm32f1xx_hal_adc_ex.c **** 
 171              		.loc 1 177 11 view .LVU48
 177:Drivers/STM32F1xx_HAL_Driver/Src/stm32f1xx_hal_adc_ex.c **** 
 172              		.loc 1 177 11 view .LVU49
 173 009c 0023     		movs	r3, #0
 174 009e 84F82430 		strb	r3, [r4, #36]
 177:Drivers/STM32F1xx_HAL_Driver/Src/stm32f1xx_hal_adc_ex.c **** 
 175              		.loc 1 177 11 view .LVU50
 179:Drivers/STM32F1xx_HAL_Driver/Src/stm32f1xx_hal_adc_ex.c ****         }
 176              		.loc 1 179 11 view .LVU51
 179:Drivers/STM32F1xx_HAL_Driver/Src/stm32f1xx_hal_adc_ex.c ****         }
 177              		.loc 1 179 18 is_stmt 0 view .LVU52
 178 00a2 0125     		movs	r5, #1
 179 00a4 C2E7     		b	.L2
 180              	.L13:
 185:Drivers/STM32F1xx_HAL_Driver/Src/stm32f1xx_hal_adc_ex.c ****     
 181              		.loc 1 185 5 is_stmt 1 view .LVU53
 182 00a6 9A68     		ldr	r2, [r3, #8]
 183 00a8 42F00402 		orr	r2, r2, #4
 184 00ac 9A60     		str	r2, [r3, #8]
 187:Drivers/STM32F1xx_HAL_Driver/Src/stm32f1xx_hal_adc_ex.c **** 
 185              		.loc 1 187 5 view .LVU54
 187:Drivers/STM32F1xx_HAL_Driver/Src/stm32f1xx_hal_adc_ex.c **** 
 186              		.loc 1 187 17 is_stmt 0 view .LVU55
 187 00ae FFF7FEFF 		bl	HAL_GetTick
 188              	.LVL12:
 189 00b2 0646     		mov	r6, r0
 190              	.LVL13:
 190:Drivers/STM32F1xx_HAL_Driver/Src/stm32f1xx_hal_adc_ex.c ****     {
 191              		.loc 1 190 5 is_stmt 1 view .LVU56
 192              	.L8:
 190:Drivers/STM32F1xx_HAL_Driver/Src/stm32f1xx_hal_adc_ex.c ****     {
 193              		.loc 1 190 11 view .LVU57
 194 00b4 2368     		ldr	r3, [r4]
 195 00b6 9B68     		ldr	r3, [r3, #8]
 196 00b8 13F0040F 		tst	r3, #4
 197 00bc 14D0     		beq	.L14
 192:Drivers/STM32F1xx_HAL_Driver/Src/stm32f1xx_hal_adc_ex.c ****       {
 198              		.loc 1 192 7 view .LVU58
 192:Drivers/STM32F1xx_HAL_Driver/Src/stm32f1xx_hal_adc_ex.c ****       {
ARM GAS  C:\Users\wyx12\AppData\Local\Temp\ccMKDd7z.s 			page 9


 199              		.loc 1 192 11 is_stmt 0 view .LVU59
 200 00be FFF7FEFF 		bl	HAL_GetTick
 201              	.LVL14:
 192:Drivers/STM32F1xx_HAL_Driver/Src/stm32f1xx_hal_adc_ex.c ****       {
 202              		.loc 1 192 25 view .LVU60
 203 00c2 801B     		subs	r0, r0, r6
 192:Drivers/STM32F1xx_HAL_Driver/Src/stm32f1xx_hal_adc_ex.c ****       {
 204              		.loc 1 192 9 view .LVU61
 205 00c4 0A28     		cmp	r0, #10
 206 00c6 F5D9     		bls	.L8
 195:Drivers/STM32F1xx_HAL_Driver/Src/stm32f1xx_hal_adc_ex.c ****         {
 207              		.loc 1 195 9 is_stmt 1 view .LVU62
 195:Drivers/STM32F1xx_HAL_Driver/Src/stm32f1xx_hal_adc_ex.c ****         {
 208              		.loc 1 195 12 is_stmt 0 view .LVU63
 209 00c8 2368     		ldr	r3, [r4]
 210 00ca 9B68     		ldr	r3, [r3, #8]
 195:Drivers/STM32F1xx_HAL_Driver/Src/stm32f1xx_hal_adc_ex.c ****         {
 211              		.loc 1 195 11 view .LVU64
 212 00cc 13F0040F 		tst	r3, #4
 213 00d0 F0D0     		beq	.L8
 198:Drivers/STM32F1xx_HAL_Driver/Src/stm32f1xx_hal_adc_ex.c ****                             HAL_ADC_STATE_BUSY_INTERNAL,
 214              		.loc 1 198 11 is_stmt 1 view .LVU65
 215 00d2 A36A     		ldr	r3, [r4, #40]
 216 00d4 23F01203 		bic	r3, r3, #18
 217 00d8 43F01003 		orr	r3, r3, #16
 218 00dc A362     		str	r3, [r4, #40]
 203:Drivers/STM32F1xx_HAL_Driver/Src/stm32f1xx_hal_adc_ex.c **** 
 219              		.loc 1 203 11 view .LVU66
 203:Drivers/STM32F1xx_HAL_Driver/Src/stm32f1xx_hal_adc_ex.c **** 
 220              		.loc 1 203 11 view .LVU67
 221 00de 0023     		movs	r3, #0
 222 00e0 84F82430 		strb	r3, [r4, #36]
 203:Drivers/STM32F1xx_HAL_Driver/Src/stm32f1xx_hal_adc_ex.c **** 
 223              		.loc 1 203 11 view .LVU68
 205:Drivers/STM32F1xx_HAL_Driver/Src/stm32f1xx_hal_adc_ex.c ****         }
 224              		.loc 1 205 11 view .LVU69
 205:Drivers/STM32F1xx_HAL_Driver/Src/stm32f1xx_hal_adc_ex.c ****         }
 225              		.loc 1 205 18 is_stmt 0 view .LVU70
 226 00e4 0125     		movs	r5, #1
 227 00e6 A1E7     		b	.L2
 228              	.L14:
 211:Drivers/STM32F1xx_HAL_Driver/Src/stm32f1xx_hal_adc_ex.c ****                       HAL_ADC_STATE_BUSY_INTERNAL,
 229              		.loc 1 211 5 is_stmt 1 view .LVU71
 230 00e8 A36A     		ldr	r3, [r4, #40]
 231 00ea 23F00303 		bic	r3, r3, #3
 232 00ee 43F00103 		orr	r3, r3, #1
 233 00f2 A362     		str	r3, [r4, #40]
 234 00f4 97E7     		b	.L3
 235              	.LVL15:
 236              	.L10:
 129:Drivers/STM32F1xx_HAL_Driver/Src/stm32f1xx_hal_adc_ex.c ****     
 237              		.loc 1 129 3 is_stmt 0 view .LVU72
 238 00f6 0225     		movs	r5, #2
 239 00f8 98E7     		b	.L2
 240              	.L16:
 241 00fa 00BF     		.align	2
 242              	.L15:
ARM GAS  C:\Users\wyx12\AppData\Local\Temp\ccMKDd7z.s 			page 10


 243 00fc 00000000 		.word	SystemCoreClock
 244              		.cfi_endproc
 245              	.LFE65:
 247              		.section	.text.HAL_ADCEx_InjectedStart,"ax",%progbits
 248              		.align	1
 249              		.global	HAL_ADCEx_InjectedStart
 250              		.syntax unified
 251              		.thumb
 252              		.thumb_func
 254              	HAL_ADCEx_InjectedStart:
 255              	.LVL16:
 256              	.LFB66:
 222:Drivers/STM32F1xx_HAL_Driver/Src/stm32f1xx_hal_adc_ex.c **** 
 223:Drivers/STM32F1xx_HAL_Driver/Src/stm32f1xx_hal_adc_ex.c **** /**
 224:Drivers/STM32F1xx_HAL_Driver/Src/stm32f1xx_hal_adc_ex.c ****   * @brief  Enables ADC, starts conversion of injected group.
 225:Drivers/STM32F1xx_HAL_Driver/Src/stm32f1xx_hal_adc_ex.c ****   *         Interruptions enabled in this function: None.
 226:Drivers/STM32F1xx_HAL_Driver/Src/stm32f1xx_hal_adc_ex.c ****   * @param  hadc: ADC handle
 227:Drivers/STM32F1xx_HAL_Driver/Src/stm32f1xx_hal_adc_ex.c ****   * @retval HAL status
 228:Drivers/STM32F1xx_HAL_Driver/Src/stm32f1xx_hal_adc_ex.c ****   */
 229:Drivers/STM32F1xx_HAL_Driver/Src/stm32f1xx_hal_adc_ex.c **** HAL_StatusTypeDef HAL_ADCEx_InjectedStart(ADC_HandleTypeDef* hadc)
 230:Drivers/STM32F1xx_HAL_Driver/Src/stm32f1xx_hal_adc_ex.c **** {
 257              		.loc 1 230 1 is_stmt 1 view -0
 258              		.cfi_startproc
 259              		@ args = 0, pretend = 0, frame = 0
 260              		@ frame_needed = 0, uses_anonymous_args = 0
 231:Drivers/STM32F1xx_HAL_Driver/Src/stm32f1xx_hal_adc_ex.c ****   HAL_StatusTypeDef tmp_hal_status = HAL_OK;
 261              		.loc 1 231 3 view .LVU74
 232:Drivers/STM32F1xx_HAL_Driver/Src/stm32f1xx_hal_adc_ex.c ****   
 233:Drivers/STM32F1xx_HAL_Driver/Src/stm32f1xx_hal_adc_ex.c ****   /* Check the parameters */
 234:Drivers/STM32F1xx_HAL_Driver/Src/stm32f1xx_hal_adc_ex.c ****   assert_param(IS_ADC_ALL_INSTANCE(hadc->Instance));
 262              		.loc 1 234 3 view .LVU75
 235:Drivers/STM32F1xx_HAL_Driver/Src/stm32f1xx_hal_adc_ex.c ****   
 236:Drivers/STM32F1xx_HAL_Driver/Src/stm32f1xx_hal_adc_ex.c ****   /* Process locked */
 237:Drivers/STM32F1xx_HAL_Driver/Src/stm32f1xx_hal_adc_ex.c ****   __HAL_LOCK(hadc);
 263              		.loc 1 237 3 view .LVU76
 264              		.loc 1 237 3 view .LVU77
 265 0000 90F82430 		ldrb	r3, [r0, #36]	@ zero_extendqisi2
 266 0004 012B     		cmp	r3, #1
 267 0006 52D0     		beq	.L26
 230:Drivers/STM32F1xx_HAL_Driver/Src/stm32f1xx_hal_adc_ex.c ****   HAL_StatusTypeDef tmp_hal_status = HAL_OK;
 268              		.loc 1 230 1 is_stmt 0 discriminator 2 view .LVU78
 269 0008 10B5     		push	{r4, lr}
 270              	.LCFI4:
 271              		.cfi_def_cfa_offset 8
 272              		.cfi_offset 4, -8
 273              		.cfi_offset 14, -4
 274 000a 0446     		mov	r4, r0
 275              		.loc 1 237 3 is_stmt 1 discriminator 2 view .LVU79
 276 000c 0123     		movs	r3, #1
 277 000e 80F82430 		strb	r3, [r0, #36]
 278              		.loc 1 237 3 discriminator 2 view .LVU80
 238:Drivers/STM32F1xx_HAL_Driver/Src/stm32f1xx_hal_adc_ex.c ****     
 239:Drivers/STM32F1xx_HAL_Driver/Src/stm32f1xx_hal_adc_ex.c ****   /* Enable the ADC peripheral */
 240:Drivers/STM32F1xx_HAL_Driver/Src/stm32f1xx_hal_adc_ex.c ****   tmp_hal_status = ADC_Enable(hadc);
 279              		.loc 1 240 3 discriminator 2 view .LVU81
 280              		.loc 1 240 20 is_stmt 0 discriminator 2 view .LVU82
 281 0012 FFF7FEFF 		bl	ADC_Enable
ARM GAS  C:\Users\wyx12\AppData\Local\Temp\ccMKDd7z.s 			page 11


 282              	.LVL17:
 241:Drivers/STM32F1xx_HAL_Driver/Src/stm32f1xx_hal_adc_ex.c ****   
 242:Drivers/STM32F1xx_HAL_Driver/Src/stm32f1xx_hal_adc_ex.c ****   /* Start conversion if ADC is effectively enabled */
 243:Drivers/STM32F1xx_HAL_Driver/Src/stm32f1xx_hal_adc_ex.c ****   if (tmp_hal_status == HAL_OK)
 283              		.loc 1 243 3 is_stmt 1 discriminator 2 view .LVU83
 284              		.loc 1 243 6 is_stmt 0 discriminator 2 view .LVU84
 285 0016 0028     		cmp	r0, #0
 286 0018 45D1     		bne	.L19
 244:Drivers/STM32F1xx_HAL_Driver/Src/stm32f1xx_hal_adc_ex.c ****   {
 245:Drivers/STM32F1xx_HAL_Driver/Src/stm32f1xx_hal_adc_ex.c ****     /* Set ADC state                                                          */
 246:Drivers/STM32F1xx_HAL_Driver/Src/stm32f1xx_hal_adc_ex.c ****     /* - Clear state bitfield related to injected group conversion results    */
 247:Drivers/STM32F1xx_HAL_Driver/Src/stm32f1xx_hal_adc_ex.c ****     /* - Set state bitfield related to injected operation                     */
 248:Drivers/STM32F1xx_HAL_Driver/Src/stm32f1xx_hal_adc_ex.c ****     ADC_STATE_CLR_SET(hadc->State,
 287              		.loc 1 248 5 is_stmt 1 view .LVU85
 288 001a A36A     		ldr	r3, [r4, #40]
 289 001c 23F44053 		bic	r3, r3, #12288
 290 0020 23F00103 		bic	r3, r3, #1
 291 0024 43F48053 		orr	r3, r3, #4096
 292 0028 A362     		str	r3, [r4, #40]
 249:Drivers/STM32F1xx_HAL_Driver/Src/stm32f1xx_hal_adc_ex.c ****                       HAL_ADC_STATE_READY | HAL_ADC_STATE_INJ_EOC,
 250:Drivers/STM32F1xx_HAL_Driver/Src/stm32f1xx_hal_adc_ex.c ****                       HAL_ADC_STATE_INJ_BUSY);
 251:Drivers/STM32F1xx_HAL_Driver/Src/stm32f1xx_hal_adc_ex.c ****     
 252:Drivers/STM32F1xx_HAL_Driver/Src/stm32f1xx_hal_adc_ex.c ****     /* Case of independent mode or multimode (for devices with several ADCs): */
 253:Drivers/STM32F1xx_HAL_Driver/Src/stm32f1xx_hal_adc_ex.c ****     /* Set multimode state.                                                   */
 254:Drivers/STM32F1xx_HAL_Driver/Src/stm32f1xx_hal_adc_ex.c ****     if (ADC_NONMULTIMODE_OR_MULTIMODEMASTER(hadc))
 293              		.loc 1 254 5 view .LVU86
 294              		.loc 1 254 9 is_stmt 0 view .LVU87
 295 002a 2268     		ldr	r2, [r4]
 296              		.loc 1 254 8 view .LVU88
 297 002c 214B     		ldr	r3, .L34
 298 002e 9A42     		cmp	r2, r3
 299 0030 1FD0     		beq	.L31
 300              	.L20:
 255:Drivers/STM32F1xx_HAL_Driver/Src/stm32f1xx_hal_adc_ex.c ****     {
 256:Drivers/STM32F1xx_HAL_Driver/Src/stm32f1xx_hal_adc_ex.c ****       CLEAR_BIT(hadc->State, HAL_ADC_STATE_MULTIMODE_SLAVE);
 301              		.loc 1 256 7 is_stmt 1 view .LVU89
 302 0032 A36A     		ldr	r3, [r4, #40]
 303 0034 23F48013 		bic	r3, r3, #1048576
 304 0038 A362     		str	r3, [r4, #40]
 305              	.L22:
 257:Drivers/STM32F1xx_HAL_Driver/Src/stm32f1xx_hal_adc_ex.c ****     }
 258:Drivers/STM32F1xx_HAL_Driver/Src/stm32f1xx_hal_adc_ex.c ****     else
 259:Drivers/STM32F1xx_HAL_Driver/Src/stm32f1xx_hal_adc_ex.c ****     {
 260:Drivers/STM32F1xx_HAL_Driver/Src/stm32f1xx_hal_adc_ex.c ****       SET_BIT(hadc->State, HAL_ADC_STATE_MULTIMODE_SLAVE);
 261:Drivers/STM32F1xx_HAL_Driver/Src/stm32f1xx_hal_adc_ex.c ****     }
 262:Drivers/STM32F1xx_HAL_Driver/Src/stm32f1xx_hal_adc_ex.c ****     
 263:Drivers/STM32F1xx_HAL_Driver/Src/stm32f1xx_hal_adc_ex.c ****     /* Check if a regular conversion is ongoing */
 264:Drivers/STM32F1xx_HAL_Driver/Src/stm32f1xx_hal_adc_ex.c ****     /* Note: On this device, there is no ADC error code fields related to     */
 265:Drivers/STM32F1xx_HAL_Driver/Src/stm32f1xx_hal_adc_ex.c ****     /*       conversions on group injected only. In case of conversion on     */
 266:Drivers/STM32F1xx_HAL_Driver/Src/stm32f1xx_hal_adc_ex.c ****     /*       going on group regular, no error code is reset.                  */
 267:Drivers/STM32F1xx_HAL_Driver/Src/stm32f1xx_hal_adc_ex.c ****     if (HAL_IS_BIT_CLR(hadc->State, HAL_ADC_STATE_REG_BUSY))
 306              		.loc 1 267 5 view .LVU90
 307              		.loc 1 267 9 is_stmt 0 view .LVU91
 308 003a A36A     		ldr	r3, [r4, #40]
 309              		.loc 1 267 8 view .LVU92
 310 003c 13F4807F 		tst	r3, #256
 311 0040 01D1     		bne	.L23
ARM GAS  C:\Users\wyx12\AppData\Local\Temp\ccMKDd7z.s 			page 12


 268:Drivers/STM32F1xx_HAL_Driver/Src/stm32f1xx_hal_adc_ex.c ****     {
 269:Drivers/STM32F1xx_HAL_Driver/Src/stm32f1xx_hal_adc_ex.c ****       /* Reset ADC all error code fields */
 270:Drivers/STM32F1xx_HAL_Driver/Src/stm32f1xx_hal_adc_ex.c ****       ADC_CLEAR_ERRORCODE(hadc);
 312              		.loc 1 270 7 is_stmt 1 view .LVU93
 313 0042 0023     		movs	r3, #0
 314 0044 E362     		str	r3, [r4, #44]
 315              	.L23:
 271:Drivers/STM32F1xx_HAL_Driver/Src/stm32f1xx_hal_adc_ex.c ****     }
 272:Drivers/STM32F1xx_HAL_Driver/Src/stm32f1xx_hal_adc_ex.c ****     
 273:Drivers/STM32F1xx_HAL_Driver/Src/stm32f1xx_hal_adc_ex.c ****     /* Process unlocked */
 274:Drivers/STM32F1xx_HAL_Driver/Src/stm32f1xx_hal_adc_ex.c ****     /* Unlock before starting ADC conversions: in case of potential           */
 275:Drivers/STM32F1xx_HAL_Driver/Src/stm32f1xx_hal_adc_ex.c ****     /* interruption, to let the process to ADC IRQ Handler.                   */
 276:Drivers/STM32F1xx_HAL_Driver/Src/stm32f1xx_hal_adc_ex.c ****     __HAL_UNLOCK(hadc);
 316              		.loc 1 276 5 view .LVU94
 317              		.loc 1 276 5 view .LVU95
 318 0046 0023     		movs	r3, #0
 319 0048 84F82430 		strb	r3, [r4, #36]
 320              		.loc 1 276 5 view .LVU96
 277:Drivers/STM32F1xx_HAL_Driver/Src/stm32f1xx_hal_adc_ex.c ****     
 278:Drivers/STM32F1xx_HAL_Driver/Src/stm32f1xx_hal_adc_ex.c ****     /* Clear injected group conversion flag */
 279:Drivers/STM32F1xx_HAL_Driver/Src/stm32f1xx_hal_adc_ex.c ****     /* (To ensure of no unknown state from potential previous ADC operations) */
 280:Drivers/STM32F1xx_HAL_Driver/Src/stm32f1xx_hal_adc_ex.c ****     __HAL_ADC_CLEAR_FLAG(hadc, ADC_FLAG_JEOC);
 321              		.loc 1 280 5 view .LVU97
 322 004c 6FF00403 		mvn	r3, #4
 323 0050 1360     		str	r3, [r2]
 281:Drivers/STM32F1xx_HAL_Driver/Src/stm32f1xx_hal_adc_ex.c ****         
 282:Drivers/STM32F1xx_HAL_Driver/Src/stm32f1xx_hal_adc_ex.c ****     /* Enable conversion of injected group.                                   */
 283:Drivers/STM32F1xx_HAL_Driver/Src/stm32f1xx_hal_adc_ex.c ****     /* If software start has been selected, conversion starts immediately.    */
 284:Drivers/STM32F1xx_HAL_Driver/Src/stm32f1xx_hal_adc_ex.c ****     /* If external trigger has been selected, conversion will start at next   */
 285:Drivers/STM32F1xx_HAL_Driver/Src/stm32f1xx_hal_adc_ex.c ****     /* trigger event.                                                         */
 286:Drivers/STM32F1xx_HAL_Driver/Src/stm32f1xx_hal_adc_ex.c ****     /* If automatic injected conversion is enabled, conversion will start     */
 287:Drivers/STM32F1xx_HAL_Driver/Src/stm32f1xx_hal_adc_ex.c ****     /* after next regular group conversion.                                   */
 288:Drivers/STM32F1xx_HAL_Driver/Src/stm32f1xx_hal_adc_ex.c ****     /* Case of multimode enabled (for devices with several ADCs): if ADC is   */
 289:Drivers/STM32F1xx_HAL_Driver/Src/stm32f1xx_hal_adc_ex.c ****     /* slave, ADC is enabled only (conversion is not started). If ADC is      */
 290:Drivers/STM32F1xx_HAL_Driver/Src/stm32f1xx_hal_adc_ex.c ****     /* master, ADC is enabled and conversion is started.                      */
 291:Drivers/STM32F1xx_HAL_Driver/Src/stm32f1xx_hal_adc_ex.c ****     if (HAL_IS_BIT_CLR(hadc->Instance->CR1, ADC_CR1_JAUTO))
 324              		.loc 1 291 5 view .LVU98
 325              		.loc 1 291 9 is_stmt 0 view .LVU99
 326 0052 2368     		ldr	r3, [r4]
 327 0054 5A68     		ldr	r2, [r3, #4]
 328              		.loc 1 291 8 view .LVU100
 329 0056 12F4806F 		tst	r2, #1024
 330 005a 27D1     		bne	.L18
 292:Drivers/STM32F1xx_HAL_Driver/Src/stm32f1xx_hal_adc_ex.c ****     {
 293:Drivers/STM32F1xx_HAL_Driver/Src/stm32f1xx_hal_adc_ex.c ****       if (ADC_IS_SOFTWARE_START_INJECTED(hadc)     &&
 331              		.loc 1 293 7 is_stmt 1 view .LVU101
 332              		.loc 1 293 11 is_stmt 0 view .LVU102
 333 005c 9A68     		ldr	r2, [r3, #8]
 334 005e 02F4E042 		and	r2, r2, #28672
 335              		.loc 1 293 10 view .LVU103
 336 0062 B2F5E04F 		cmp	r2, #28672
 337 0066 0FD0     		beq	.L32
 338              	.L24:
 294:Drivers/STM32F1xx_HAL_Driver/Src/stm32f1xx_hal_adc_ex.c ****           ADC_NONMULTIMODE_OR_MULTIMODEMASTER(hadc)  )
 295:Drivers/STM32F1xx_HAL_Driver/Src/stm32f1xx_hal_adc_ex.c ****       {
 296:Drivers/STM32F1xx_HAL_Driver/Src/stm32f1xx_hal_adc_ex.c ****         /* Start ADC conversion on injected group with SW start */
 297:Drivers/STM32F1xx_HAL_Driver/Src/stm32f1xx_hal_adc_ex.c ****         SET_BIT(hadc->Instance->CR2, (ADC_CR2_JSWSTART | ADC_CR2_JEXTTRIG));
ARM GAS  C:\Users\wyx12\AppData\Local\Temp\ccMKDd7z.s 			page 13


 298:Drivers/STM32F1xx_HAL_Driver/Src/stm32f1xx_hal_adc_ex.c ****       }
 299:Drivers/STM32F1xx_HAL_Driver/Src/stm32f1xx_hal_adc_ex.c ****       else
 300:Drivers/STM32F1xx_HAL_Driver/Src/stm32f1xx_hal_adc_ex.c ****       {
 301:Drivers/STM32F1xx_HAL_Driver/Src/stm32f1xx_hal_adc_ex.c ****         /* Start ADC conversion on injected group with external trigger */
 302:Drivers/STM32F1xx_HAL_Driver/Src/stm32f1xx_hal_adc_ex.c ****         SET_BIT(hadc->Instance->CR2, ADC_CR2_JEXTTRIG);
 339              		.loc 1 302 9 is_stmt 1 view .LVU104
 340 0068 9A68     		ldr	r2, [r3, #8]
 341 006a 42F40042 		orr	r2, r2, #32768
 342 006e 9A60     		str	r2, [r3, #8]
 343 0070 1CE0     		b	.L18
 344              	.L31:
 254:Drivers/STM32F1xx_HAL_Driver/Src/stm32f1xx_hal_adc_ex.c ****     {
 345              		.loc 1 254 9 is_stmt 0 discriminator 1 view .LVU105
 346 0072 A3F58063 		sub	r3, r3, #1024
 347 0076 5B68     		ldr	r3, [r3, #4]
 348 0078 13F4702F 		tst	r3, #983040
 349 007c D9D0     		beq	.L20
 260:Drivers/STM32F1xx_HAL_Driver/Src/stm32f1xx_hal_adc_ex.c ****     }
 350              		.loc 1 260 7 is_stmt 1 view .LVU106
 351 007e A36A     		ldr	r3, [r4, #40]
 352 0080 43F48013 		orr	r3, r3, #1048576
 353 0084 A362     		str	r3, [r4, #40]
 354 0086 D8E7     		b	.L22
 355              	.L32:
 293:Drivers/STM32F1xx_HAL_Driver/Src/stm32f1xx_hal_adc_ex.c ****           ADC_NONMULTIMODE_OR_MULTIMODEMASTER(hadc)  )
 356              		.loc 1 293 52 is_stmt 0 discriminator 1 view .LVU107
 357 0088 0A4A     		ldr	r2, .L34
 358 008a 9342     		cmp	r3, r2
 359 008c 04D0     		beq	.L33
 360              	.L25:
 297:Drivers/STM32F1xx_HAL_Driver/Src/stm32f1xx_hal_adc_ex.c ****       }
 361              		.loc 1 297 9 is_stmt 1 view .LVU108
 362 008e 9A68     		ldr	r2, [r3, #8]
 363 0090 42F40212 		orr	r2, r2, #2129920
 364 0094 9A60     		str	r2, [r3, #8]
 365 0096 09E0     		b	.L18
 366              	.L33:
 294:Drivers/STM32F1xx_HAL_Driver/Src/stm32f1xx_hal_adc_ex.c ****       {
 367              		.loc 1 294 11 is_stmt 0 discriminator 2 view .LVU109
 368 0098 A2F58062 		sub	r2, r2, #1024
 369 009c 5268     		ldr	r2, [r2, #4]
 293:Drivers/STM32F1xx_HAL_Driver/Src/stm32f1xx_hal_adc_ex.c ****           ADC_NONMULTIMODE_OR_MULTIMODEMASTER(hadc)  )
 370              		.loc 1 293 52 discriminator 2 view .LVU110
 371 009e 12F4702F 		tst	r2, #983040
 372 00a2 E1D1     		bne	.L24
 373 00a4 F3E7     		b	.L25
 374              	.L19:
 303:Drivers/STM32F1xx_HAL_Driver/Src/stm32f1xx_hal_adc_ex.c ****       }
 304:Drivers/STM32F1xx_HAL_Driver/Src/stm32f1xx_hal_adc_ex.c ****     }
 305:Drivers/STM32F1xx_HAL_Driver/Src/stm32f1xx_hal_adc_ex.c ****   }
 306:Drivers/STM32F1xx_HAL_Driver/Src/stm32f1xx_hal_adc_ex.c ****   else
 307:Drivers/STM32F1xx_HAL_Driver/Src/stm32f1xx_hal_adc_ex.c ****   {
 308:Drivers/STM32F1xx_HAL_Driver/Src/stm32f1xx_hal_adc_ex.c ****     /* Process unlocked */
 309:Drivers/STM32F1xx_HAL_Driver/Src/stm32f1xx_hal_adc_ex.c ****     __HAL_UNLOCK(hadc);
 375              		.loc 1 309 5 is_stmt 1 view .LVU111
 376              		.loc 1 309 5 view .LVU112
 377 00a6 0023     		movs	r3, #0
ARM GAS  C:\Users\wyx12\AppData\Local\Temp\ccMKDd7z.s 			page 14


 378 00a8 84F82430 		strb	r3, [r4, #36]
 379              	.L18:
 310:Drivers/STM32F1xx_HAL_Driver/Src/stm32f1xx_hal_adc_ex.c ****   }
 311:Drivers/STM32F1xx_HAL_Driver/Src/stm32f1xx_hal_adc_ex.c ****   
 312:Drivers/STM32F1xx_HAL_Driver/Src/stm32f1xx_hal_adc_ex.c ****   /* Return function status */
 313:Drivers/STM32F1xx_HAL_Driver/Src/stm32f1xx_hal_adc_ex.c ****   return tmp_hal_status;
 314:Drivers/STM32F1xx_HAL_Driver/Src/stm32f1xx_hal_adc_ex.c **** }
 380              		.loc 1 314 1 is_stmt 0 view .LVU113
 381 00ac 10BD     		pop	{r4, pc}
 382              	.LVL18:
 383              	.L26:
 384              	.LCFI5:
 385              		.cfi_def_cfa_offset 0
 386              		.cfi_restore 4
 387              		.cfi_restore 14
 237:Drivers/STM32F1xx_HAL_Driver/Src/stm32f1xx_hal_adc_ex.c ****     
 388              		.loc 1 237 3 view .LVU114
 389 00ae 0220     		movs	r0, #2
 390              	.LVL19:
 391              		.loc 1 314 1 view .LVU115
 392 00b0 7047     		bx	lr
 393              	.L35:
 394 00b2 00BF     		.align	2
 395              	.L34:
 396 00b4 00280140 		.word	1073817600
 397              		.cfi_endproc
 398              	.LFE66:
 400              		.section	.text.HAL_ADCEx_InjectedStop,"ax",%progbits
 401              		.align	1
 402              		.global	HAL_ADCEx_InjectedStop
 403              		.syntax unified
 404              		.thumb
 405              		.thumb_func
 407              	HAL_ADCEx_InjectedStop:
 408              	.LVL20:
 409              	.LFB67:
 315:Drivers/STM32F1xx_HAL_Driver/Src/stm32f1xx_hal_adc_ex.c **** 
 316:Drivers/STM32F1xx_HAL_Driver/Src/stm32f1xx_hal_adc_ex.c **** /**
 317:Drivers/STM32F1xx_HAL_Driver/Src/stm32f1xx_hal_adc_ex.c ****   * @brief  Stop conversion of injected channels. Disable ADC peripheral if
 318:Drivers/STM32F1xx_HAL_Driver/Src/stm32f1xx_hal_adc_ex.c ****   *         no regular conversion is on going.
 319:Drivers/STM32F1xx_HAL_Driver/Src/stm32f1xx_hal_adc_ex.c ****   * @note   If ADC must be disabled and if conversion is on going on 
 320:Drivers/STM32F1xx_HAL_Driver/Src/stm32f1xx_hal_adc_ex.c ****   *         regular group, function HAL_ADC_Stop must be used to stop both
 321:Drivers/STM32F1xx_HAL_Driver/Src/stm32f1xx_hal_adc_ex.c ****   *         injected and regular groups, and disable the ADC.
 322:Drivers/STM32F1xx_HAL_Driver/Src/stm32f1xx_hal_adc_ex.c ****   * @note   If injected group mode auto-injection is enabled,
 323:Drivers/STM32F1xx_HAL_Driver/Src/stm32f1xx_hal_adc_ex.c ****   *         function HAL_ADC_Stop must be used.
 324:Drivers/STM32F1xx_HAL_Driver/Src/stm32f1xx_hal_adc_ex.c ****   * @note   In case of auto-injection mode, HAL_ADC_Stop must be used.
 325:Drivers/STM32F1xx_HAL_Driver/Src/stm32f1xx_hal_adc_ex.c ****   * @param  hadc: ADC handle
 326:Drivers/STM32F1xx_HAL_Driver/Src/stm32f1xx_hal_adc_ex.c ****   * @retval None
 327:Drivers/STM32F1xx_HAL_Driver/Src/stm32f1xx_hal_adc_ex.c ****   */
 328:Drivers/STM32F1xx_HAL_Driver/Src/stm32f1xx_hal_adc_ex.c **** HAL_StatusTypeDef HAL_ADCEx_InjectedStop(ADC_HandleTypeDef* hadc)
 329:Drivers/STM32F1xx_HAL_Driver/Src/stm32f1xx_hal_adc_ex.c **** {
 410              		.loc 1 329 1 is_stmt 1 view -0
 411              		.cfi_startproc
 412              		@ args = 0, pretend = 0, frame = 0
 413              		@ frame_needed = 0, uses_anonymous_args = 0
 330:Drivers/STM32F1xx_HAL_Driver/Src/stm32f1xx_hal_adc_ex.c ****   HAL_StatusTypeDef tmp_hal_status = HAL_OK;
 414              		.loc 1 330 3 view .LVU117
ARM GAS  C:\Users\wyx12\AppData\Local\Temp\ccMKDd7z.s 			page 15


 331:Drivers/STM32F1xx_HAL_Driver/Src/stm32f1xx_hal_adc_ex.c ****   
 332:Drivers/STM32F1xx_HAL_Driver/Src/stm32f1xx_hal_adc_ex.c ****   /* Check the parameters */
 333:Drivers/STM32F1xx_HAL_Driver/Src/stm32f1xx_hal_adc_ex.c ****   assert_param(IS_ADC_ALL_INSTANCE(hadc->Instance));
 415              		.loc 1 333 3 view .LVU118
 334:Drivers/STM32F1xx_HAL_Driver/Src/stm32f1xx_hal_adc_ex.c **** 
 335:Drivers/STM32F1xx_HAL_Driver/Src/stm32f1xx_hal_adc_ex.c ****   /* Process locked */
 336:Drivers/STM32F1xx_HAL_Driver/Src/stm32f1xx_hal_adc_ex.c ****   __HAL_LOCK(hadc);
 416              		.loc 1 336 3 view .LVU119
 417              		.loc 1 336 3 view .LVU120
 418 0000 90F82430 		ldrb	r3, [r0, #36]	@ zero_extendqisi2
 419 0004 012B     		cmp	r3, #1
 420 0006 23D0     		beq	.L40
 329:Drivers/STM32F1xx_HAL_Driver/Src/stm32f1xx_hal_adc_ex.c ****   HAL_StatusTypeDef tmp_hal_status = HAL_OK;
 421              		.loc 1 329 1 is_stmt 0 discriminator 2 view .LVU121
 422 0008 10B5     		push	{r4, lr}
 423              	.LCFI6:
 424              		.cfi_def_cfa_offset 8
 425              		.cfi_offset 4, -8
 426              		.cfi_offset 14, -4
 427 000a 0446     		mov	r4, r0
 428              		.loc 1 336 3 is_stmt 1 discriminator 2 view .LVU122
 429 000c 0123     		movs	r3, #1
 430 000e 80F82430 		strb	r3, [r0, #36]
 431              		.loc 1 336 3 discriminator 2 view .LVU123
 337:Drivers/STM32F1xx_HAL_Driver/Src/stm32f1xx_hal_adc_ex.c ****     
 338:Drivers/STM32F1xx_HAL_Driver/Src/stm32f1xx_hal_adc_ex.c ****   /* Stop potential conversion and disable ADC peripheral                     */
 339:Drivers/STM32F1xx_HAL_Driver/Src/stm32f1xx_hal_adc_ex.c ****   /* Conditioned to:                                                          */
 340:Drivers/STM32F1xx_HAL_Driver/Src/stm32f1xx_hal_adc_ex.c ****   /* - No conversion on the other group (regular group) is intended to        */
 341:Drivers/STM32F1xx_HAL_Driver/Src/stm32f1xx_hal_adc_ex.c ****   /*   continue (injected and regular groups stop conversion and ADC disable  */
 342:Drivers/STM32F1xx_HAL_Driver/Src/stm32f1xx_hal_adc_ex.c ****   /*   are common)                                                            */
 343:Drivers/STM32F1xx_HAL_Driver/Src/stm32f1xx_hal_adc_ex.c ****   /* - In case of auto-injection mode, HAL_ADC_Stop must be used.             */
 344:Drivers/STM32F1xx_HAL_Driver/Src/stm32f1xx_hal_adc_ex.c ****   if(((hadc->State & HAL_ADC_STATE_REG_BUSY) == RESET)  &&
 432              		.loc 1 344 3 discriminator 2 view .LVU124
 433              		.loc 1 344 12 is_stmt 0 discriminator 2 view .LVU125
 434 0012 836A     		ldr	r3, [r0, #40]
 435              		.loc 1 344 5 discriminator 2 view .LVU126
 436 0014 13F4807F 		tst	r3, #256
 437 0018 04D1     		bne	.L38
 345:Drivers/STM32F1xx_HAL_Driver/Src/stm32f1xx_hal_adc_ex.c ****      HAL_IS_BIT_CLR(hadc->Instance->CR1, ADC_CR1_JAUTO)   )
 438              		.loc 1 345 6 discriminator 1 view .LVU127
 439 001a 0368     		ldr	r3, [r0]
 440 001c 5B68     		ldr	r3, [r3, #4]
 344:Drivers/STM32F1xx_HAL_Driver/Src/stm32f1xx_hal_adc_ex.c ****      HAL_IS_BIT_CLR(hadc->Instance->CR1, ADC_CR1_JAUTO)   )
 441              		.loc 1 344 57 discriminator 1 view .LVU128
 442 001e 13F4806F 		tst	r3, #1024
 443 0022 08D0     		beq	.L45
 444              	.L38:
 346:Drivers/STM32F1xx_HAL_Driver/Src/stm32f1xx_hal_adc_ex.c ****   {
 347:Drivers/STM32F1xx_HAL_Driver/Src/stm32f1xx_hal_adc_ex.c ****     /* Stop potential conversion on going, on regular and injected groups */
 348:Drivers/STM32F1xx_HAL_Driver/Src/stm32f1xx_hal_adc_ex.c ****     /* Disable ADC peripheral */
 349:Drivers/STM32F1xx_HAL_Driver/Src/stm32f1xx_hal_adc_ex.c ****     tmp_hal_status = ADC_ConversionStop_Disable(hadc);
 350:Drivers/STM32F1xx_HAL_Driver/Src/stm32f1xx_hal_adc_ex.c ****     
 351:Drivers/STM32F1xx_HAL_Driver/Src/stm32f1xx_hal_adc_ex.c ****     /* Check if ADC is effectively disabled */
 352:Drivers/STM32F1xx_HAL_Driver/Src/stm32f1xx_hal_adc_ex.c ****     if (tmp_hal_status == HAL_OK)
 353:Drivers/STM32F1xx_HAL_Driver/Src/stm32f1xx_hal_adc_ex.c ****     {
 354:Drivers/STM32F1xx_HAL_Driver/Src/stm32f1xx_hal_adc_ex.c ****       /* Set ADC state */
 355:Drivers/STM32F1xx_HAL_Driver/Src/stm32f1xx_hal_adc_ex.c ****       ADC_STATE_CLR_SET(hadc->State,
ARM GAS  C:\Users\wyx12\AppData\Local\Temp\ccMKDd7z.s 			page 16


 356:Drivers/STM32F1xx_HAL_Driver/Src/stm32f1xx_hal_adc_ex.c ****                         HAL_ADC_STATE_REG_BUSY | HAL_ADC_STATE_INJ_BUSY,
 357:Drivers/STM32F1xx_HAL_Driver/Src/stm32f1xx_hal_adc_ex.c ****                         HAL_ADC_STATE_READY);
 358:Drivers/STM32F1xx_HAL_Driver/Src/stm32f1xx_hal_adc_ex.c ****     }
 359:Drivers/STM32F1xx_HAL_Driver/Src/stm32f1xx_hal_adc_ex.c ****   }
 360:Drivers/STM32F1xx_HAL_Driver/Src/stm32f1xx_hal_adc_ex.c ****   else
 361:Drivers/STM32F1xx_HAL_Driver/Src/stm32f1xx_hal_adc_ex.c ****   {
 362:Drivers/STM32F1xx_HAL_Driver/Src/stm32f1xx_hal_adc_ex.c ****     /* Update ADC state machine to error */
 363:Drivers/STM32F1xx_HAL_Driver/Src/stm32f1xx_hal_adc_ex.c ****     SET_BIT(hadc->State, HAL_ADC_STATE_ERROR_CONFIG);
 445              		.loc 1 363 5 is_stmt 1 view .LVU129
 446 0024 A36A     		ldr	r3, [r4, #40]
 447 0026 43F02003 		orr	r3, r3, #32
 448 002a A362     		str	r3, [r4, #40]
 364:Drivers/STM32F1xx_HAL_Driver/Src/stm32f1xx_hal_adc_ex.c ****       
 365:Drivers/STM32F1xx_HAL_Driver/Src/stm32f1xx_hal_adc_ex.c ****     tmp_hal_status = HAL_ERROR;
 449              		.loc 1 365 5 view .LVU130
 450              	.LVL21:
 451              		.loc 1 365 20 is_stmt 0 view .LVU131
 452 002c 0120     		movs	r0, #1
 453              	.LVL22:
 454              	.L39:
 366:Drivers/STM32F1xx_HAL_Driver/Src/stm32f1xx_hal_adc_ex.c ****   }
 367:Drivers/STM32F1xx_HAL_Driver/Src/stm32f1xx_hal_adc_ex.c ****   
 368:Drivers/STM32F1xx_HAL_Driver/Src/stm32f1xx_hal_adc_ex.c ****   /* Process unlocked */
 369:Drivers/STM32F1xx_HAL_Driver/Src/stm32f1xx_hal_adc_ex.c ****   __HAL_UNLOCK(hadc);
 455              		.loc 1 369 3 is_stmt 1 view .LVU132
 456              		.loc 1 369 3 view .LVU133
 457 002e 0023     		movs	r3, #0
 458 0030 84F82430 		strb	r3, [r4, #36]
 459              		.loc 1 369 3 view .LVU134
 370:Drivers/STM32F1xx_HAL_Driver/Src/stm32f1xx_hal_adc_ex.c ****   
 371:Drivers/STM32F1xx_HAL_Driver/Src/stm32f1xx_hal_adc_ex.c ****   /* Return function status */
 372:Drivers/STM32F1xx_HAL_Driver/Src/stm32f1xx_hal_adc_ex.c ****   return tmp_hal_status;
 460              		.loc 1 372 3 view .LVU135
 373:Drivers/STM32F1xx_HAL_Driver/Src/stm32f1xx_hal_adc_ex.c **** }
 461              		.loc 1 373 1 is_stmt 0 view .LVU136
 462 0034 10BD     		pop	{r4, pc}
 463              	.LVL23:
 464              	.L45:
 349:Drivers/STM32F1xx_HAL_Driver/Src/stm32f1xx_hal_adc_ex.c ****     
 465              		.loc 1 349 5 is_stmt 1 view .LVU137
 349:Drivers/STM32F1xx_HAL_Driver/Src/stm32f1xx_hal_adc_ex.c ****     
 466              		.loc 1 349 22 is_stmt 0 view .LVU138
 467 0036 FFF7FEFF 		bl	ADC_ConversionStop_Disable
 468              	.LVL24:
 352:Drivers/STM32F1xx_HAL_Driver/Src/stm32f1xx_hal_adc_ex.c ****     {
 469              		.loc 1 352 5 is_stmt 1 view .LVU139
 352:Drivers/STM32F1xx_HAL_Driver/Src/stm32f1xx_hal_adc_ex.c ****     {
 470              		.loc 1 352 8 is_stmt 0 view .LVU140
 471 003a 0028     		cmp	r0, #0
 472 003c F7D1     		bne	.L39
 355:Drivers/STM32F1xx_HAL_Driver/Src/stm32f1xx_hal_adc_ex.c ****                         HAL_ADC_STATE_REG_BUSY | HAL_ADC_STATE_INJ_BUSY,
 473              		.loc 1 355 7 is_stmt 1 view .LVU141
 474 003e A36A     		ldr	r3, [r4, #40]
 475 0040 23F48853 		bic	r3, r3, #4352
 476 0044 23F00103 		bic	r3, r3, #1
 477 0048 43F00103 		orr	r3, r3, #1
 478 004c A362     		str	r3, [r4, #40]
ARM GAS  C:\Users\wyx12\AppData\Local\Temp\ccMKDd7z.s 			page 17


 479 004e EEE7     		b	.L39
 480              	.LVL25:
 481              	.L40:
 482              	.LCFI7:
 483              		.cfi_def_cfa_offset 0
 484              		.cfi_restore 4
 485              		.cfi_restore 14
 336:Drivers/STM32F1xx_HAL_Driver/Src/stm32f1xx_hal_adc_ex.c ****     
 486              		.loc 1 336 3 is_stmt 0 view .LVU142
 487 0050 0220     		movs	r0, #2
 488              	.LVL26:
 489              		.loc 1 373 1 view .LVU143
 490 0052 7047     		bx	lr
 491              		.cfi_endproc
 492              	.LFE67:
 494              		.section	.text.HAL_ADCEx_InjectedPollForConversion,"ax",%progbits
 495              		.align	1
 496              		.global	HAL_ADCEx_InjectedPollForConversion
 497              		.syntax unified
 498              		.thumb
 499              		.thumb_func
 501              	HAL_ADCEx_InjectedPollForConversion:
 502              	.LVL27:
 503              	.LFB68:
 374:Drivers/STM32F1xx_HAL_Driver/Src/stm32f1xx_hal_adc_ex.c **** 
 375:Drivers/STM32F1xx_HAL_Driver/Src/stm32f1xx_hal_adc_ex.c **** /**
 376:Drivers/STM32F1xx_HAL_Driver/Src/stm32f1xx_hal_adc_ex.c ****   * @brief  Wait for injected group conversion to be completed.
 377:Drivers/STM32F1xx_HAL_Driver/Src/stm32f1xx_hal_adc_ex.c ****   * @param  hadc: ADC handle
 378:Drivers/STM32F1xx_HAL_Driver/Src/stm32f1xx_hal_adc_ex.c ****   * @param  Timeout: Timeout value in millisecond.
 379:Drivers/STM32F1xx_HAL_Driver/Src/stm32f1xx_hal_adc_ex.c ****   * @retval HAL status
 380:Drivers/STM32F1xx_HAL_Driver/Src/stm32f1xx_hal_adc_ex.c ****   */
 381:Drivers/STM32F1xx_HAL_Driver/Src/stm32f1xx_hal_adc_ex.c **** HAL_StatusTypeDef HAL_ADCEx_InjectedPollForConversion(ADC_HandleTypeDef* hadc, uint32_t Timeout)
 382:Drivers/STM32F1xx_HAL_Driver/Src/stm32f1xx_hal_adc_ex.c **** {
 504              		.loc 1 382 1 is_stmt 1 view -0
 505              		.cfi_startproc
 506              		@ args = 0, pretend = 0, frame = 8
 507              		@ frame_needed = 0, uses_anonymous_args = 0
 508              		.loc 1 382 1 is_stmt 0 view .LVU145
 509 0000 F0B5     		push	{r4, r5, r6, r7, lr}
 510              	.LCFI8:
 511              		.cfi_def_cfa_offset 20
 512              		.cfi_offset 4, -20
 513              		.cfi_offset 5, -16
 514              		.cfi_offset 6, -12
 515              		.cfi_offset 7, -8
 516              		.cfi_offset 14, -4
 517 0002 83B0     		sub	sp, sp, #12
 518              	.LCFI9:
 519              		.cfi_def_cfa_offset 32
 520 0004 0546     		mov	r5, r0
 521 0006 0C46     		mov	r4, r1
 383:Drivers/STM32F1xx_HAL_Driver/Src/stm32f1xx_hal_adc_ex.c ****   uint32_t tickstart;
 522              		.loc 1 383 3 is_stmt 1 view .LVU146
 384:Drivers/STM32F1xx_HAL_Driver/Src/stm32f1xx_hal_adc_ex.c **** 
 385:Drivers/STM32F1xx_HAL_Driver/Src/stm32f1xx_hal_adc_ex.c ****   /* Variables for polling in case of scan mode enabled and polling for each  */
 386:Drivers/STM32F1xx_HAL_Driver/Src/stm32f1xx_hal_adc_ex.c ****   /* conversion.                                                              */
 387:Drivers/STM32F1xx_HAL_Driver/Src/stm32f1xx_hal_adc_ex.c ****   __IO uint32_t Conversion_Timeout_CPU_cycles = 0U;
ARM GAS  C:\Users\wyx12\AppData\Local\Temp\ccMKDd7z.s 			page 18


 523              		.loc 1 387 3 view .LVU147
 524              		.loc 1 387 17 is_stmt 0 view .LVU148
 525 0008 0023     		movs	r3, #0
 526 000a 0193     		str	r3, [sp, #4]
 388:Drivers/STM32F1xx_HAL_Driver/Src/stm32f1xx_hal_adc_ex.c ****   uint32_t Conversion_Timeout_CPU_cycles_max = 0U;
 527              		.loc 1 388 3 is_stmt 1 view .LVU149
 528              	.LVL28:
 389:Drivers/STM32F1xx_HAL_Driver/Src/stm32f1xx_hal_adc_ex.c ****   
 390:Drivers/STM32F1xx_HAL_Driver/Src/stm32f1xx_hal_adc_ex.c ****   /* Check the parameters */
 391:Drivers/STM32F1xx_HAL_Driver/Src/stm32f1xx_hal_adc_ex.c ****   assert_param(IS_ADC_ALL_INSTANCE(hadc->Instance));
 529              		.loc 1 391 3 view .LVU150
 392:Drivers/STM32F1xx_HAL_Driver/Src/stm32f1xx_hal_adc_ex.c **** 
 393:Drivers/STM32F1xx_HAL_Driver/Src/stm32f1xx_hal_adc_ex.c ****   /* Get timeout */
 394:Drivers/STM32F1xx_HAL_Driver/Src/stm32f1xx_hal_adc_ex.c ****   tickstart = HAL_GetTick();  
 530              		.loc 1 394 3 view .LVU151
 531              		.loc 1 394 15 is_stmt 0 view .LVU152
 532 000c FFF7FEFF 		bl	HAL_GetTick
 533              	.LVL29:
 534              		.loc 1 394 15 view .LVU153
 535 0010 0646     		mov	r6, r0
 536              	.LVL30:
 395:Drivers/STM32F1xx_HAL_Driver/Src/stm32f1xx_hal_adc_ex.c ****      
 396:Drivers/STM32F1xx_HAL_Driver/Src/stm32f1xx_hal_adc_ex.c ****   /* Polling for end of conversion: differentiation if single/sequence        */
 397:Drivers/STM32F1xx_HAL_Driver/Src/stm32f1xx_hal_adc_ex.c ****   /* conversion.                                                              */
 398:Drivers/STM32F1xx_HAL_Driver/Src/stm32f1xx_hal_adc_ex.c ****   /* For injected group, flag JEOC is set only at the end of the sequence,    */
 399:Drivers/STM32F1xx_HAL_Driver/Src/stm32f1xx_hal_adc_ex.c ****   /* not for each conversion within the sequence.                             */
 400:Drivers/STM32F1xx_HAL_Driver/Src/stm32f1xx_hal_adc_ex.c ****   /*  - If single conversion for injected group (scan mode disabled or        */
 401:Drivers/STM32F1xx_HAL_Driver/Src/stm32f1xx_hal_adc_ex.c ****   /*    InjectedNbrOfConversion ==1), flag JEOC is used to determine the      */
 402:Drivers/STM32F1xx_HAL_Driver/Src/stm32f1xx_hal_adc_ex.c ****   /*    conversion completion.                                                */
 403:Drivers/STM32F1xx_HAL_Driver/Src/stm32f1xx_hal_adc_ex.c ****   /*  - If sequence conversion for injected group (scan mode enabled and      */
 404:Drivers/STM32F1xx_HAL_Driver/Src/stm32f1xx_hal_adc_ex.c ****   /*    InjectedNbrOfConversion >=2), flag JEOC is set only at the end of the */
 405:Drivers/STM32F1xx_HAL_Driver/Src/stm32f1xx_hal_adc_ex.c ****   /*    sequence.                                                             */
 406:Drivers/STM32F1xx_HAL_Driver/Src/stm32f1xx_hal_adc_ex.c ****   /*    To poll for each conversion, the maximum conversion time is computed  */
 407:Drivers/STM32F1xx_HAL_Driver/Src/stm32f1xx_hal_adc_ex.c ****   /*    from ADC conversion time (selected sampling time + conversion time of */
 408:Drivers/STM32F1xx_HAL_Driver/Src/stm32f1xx_hal_adc_ex.c ****   /*    12.5 ADC clock cycles) and APB2/ADC clock prescalers (depending on    */
 409:Drivers/STM32F1xx_HAL_Driver/Src/stm32f1xx_hal_adc_ex.c ****   /*    settings, conversion time range can be from 28 to 32256 CPU cycles).  */
 410:Drivers/STM32F1xx_HAL_Driver/Src/stm32f1xx_hal_adc_ex.c ****   /*    As flag JEOC is not set after each conversion, no timeout status can  */
 411:Drivers/STM32F1xx_HAL_Driver/Src/stm32f1xx_hal_adc_ex.c ****   /*    be set.                                                               */
 412:Drivers/STM32F1xx_HAL_Driver/Src/stm32f1xx_hal_adc_ex.c ****   if ((hadc->Instance->JSQR & ADC_JSQR_JL) == RESET)
 537              		.loc 1 412 3 is_stmt 1 view .LVU154
 538              		.loc 1 412 12 is_stmt 0 view .LVU155
 539 0012 2B68     		ldr	r3, [r5]
 540              		.loc 1 412 22 view .LVU156
 541 0014 9B6B     		ldr	r3, [r3, #56]
 542              		.loc 1 412 6 view .LVU157
 543 0016 13F4401F 		tst	r3, #3145728
 544 001a 1CD1     		bne	.L74
 545              	.LVL31:
 546              	.L49:
 413:Drivers/STM32F1xx_HAL_Driver/Src/stm32f1xx_hal_adc_ex.c ****   {
 414:Drivers/STM32F1xx_HAL_Driver/Src/stm32f1xx_hal_adc_ex.c ****     /* Wait until End of Conversion flag is raised */
 415:Drivers/STM32F1xx_HAL_Driver/Src/stm32f1xx_hal_adc_ex.c ****     while(HAL_IS_BIT_CLR(hadc->Instance->SR, ADC_FLAG_JEOC))
 547              		.loc 1 415 11 is_stmt 1 view .LVU158
 548 001c 2B68     		ldr	r3, [r5]
 549 001e 1B68     		ldr	r3, [r3]
 550 0020 13F0040F 		tst	r3, #4
 551 0024 6ED1     		bne	.L54
ARM GAS  C:\Users\wyx12\AppData\Local\Temp\ccMKDd7z.s 			page 19


 416:Drivers/STM32F1xx_HAL_Driver/Src/stm32f1xx_hal_adc_ex.c ****     {
 417:Drivers/STM32F1xx_HAL_Driver/Src/stm32f1xx_hal_adc_ex.c ****       /* Check if timeout is disabled (set to infinite wait) */
 418:Drivers/STM32F1xx_HAL_Driver/Src/stm32f1xx_hal_adc_ex.c ****       if(Timeout != HAL_MAX_DELAY)
 552              		.loc 1 418 7 view .LVU159
 553              		.loc 1 418 9 is_stmt 0 view .LVU160
 554 0026 B4F1FF3F 		cmp	r4, #-1
 555 002a F7D0     		beq	.L49
 419:Drivers/STM32F1xx_HAL_Driver/Src/stm32f1xx_hal_adc_ex.c ****       {
 420:Drivers/STM32F1xx_HAL_Driver/Src/stm32f1xx_hal_adc_ex.c ****         if((Timeout == 0U) || ((HAL_GetTick() - tickstart ) > Timeout))
 556              		.loc 1 420 9 is_stmt 1 view .LVU161
 557              		.loc 1 420 11 is_stmt 0 view .LVU162
 558 002c 6CB9     		cbnz	r4, .L75
 559              	.L50:
 421:Drivers/STM32F1xx_HAL_Driver/Src/stm32f1xx_hal_adc_ex.c ****         {
 422:Drivers/STM32F1xx_HAL_Driver/Src/stm32f1xx_hal_adc_ex.c ****           /* New check to avoid false timeout detection in case of preemption */
 423:Drivers/STM32F1xx_HAL_Driver/Src/stm32f1xx_hal_adc_ex.c ****           if(HAL_IS_BIT_CLR(hadc->Instance->SR, ADC_FLAG_JEOC))
 560              		.loc 1 423 11 is_stmt 1 view .LVU163
 561              		.loc 1 423 14 is_stmt 0 view .LVU164
 562 002e 2B68     		ldr	r3, [r5]
 563 0030 1B68     		ldr	r3, [r3]
 564              		.loc 1 423 13 view .LVU165
 565 0032 13F0040F 		tst	r3, #4
 566 0036 F1D1     		bne	.L49
 424:Drivers/STM32F1xx_HAL_Driver/Src/stm32f1xx_hal_adc_ex.c ****           {
 425:Drivers/STM32F1xx_HAL_Driver/Src/stm32f1xx_hal_adc_ex.c ****             /* Update ADC state machine to timeout */
 426:Drivers/STM32F1xx_HAL_Driver/Src/stm32f1xx_hal_adc_ex.c ****             SET_BIT(hadc->State, HAL_ADC_STATE_TIMEOUT);
 567              		.loc 1 426 13 is_stmt 1 view .LVU166
 568 0038 AB6A     		ldr	r3, [r5, #40]
 569 003a 43F00403 		orr	r3, r3, #4
 570 003e AB62     		str	r3, [r5, #40]
 427:Drivers/STM32F1xx_HAL_Driver/Src/stm32f1xx_hal_adc_ex.c **** 
 428:Drivers/STM32F1xx_HAL_Driver/Src/stm32f1xx_hal_adc_ex.c ****             /* Process unlocked */
 429:Drivers/STM32F1xx_HAL_Driver/Src/stm32f1xx_hal_adc_ex.c ****             __HAL_UNLOCK(hadc);
 571              		.loc 1 429 13 view .LVU167
 572              		.loc 1 429 13 view .LVU168
 573 0040 0023     		movs	r3, #0
 574 0042 85F82430 		strb	r3, [r5, #36]
 575              		.loc 1 429 13 view .LVU169
 430:Drivers/STM32F1xx_HAL_Driver/Src/stm32f1xx_hal_adc_ex.c **** 
 431:Drivers/STM32F1xx_HAL_Driver/Src/stm32f1xx_hal_adc_ex.c ****             return HAL_TIMEOUT;
 576              		.loc 1 431 13 view .LVU170
 577              		.loc 1 431 20 is_stmt 0 view .LVU171
 578 0046 0320     		movs	r0, #3
 579 0048 88E0     		b	.L52
 580              	.L75:
 420:Drivers/STM32F1xx_HAL_Driver/Src/stm32f1xx_hal_adc_ex.c ****         {
 581              		.loc 1 420 33 discriminator 1 view .LVU172
 582 004a FFF7FEFF 		bl	HAL_GetTick
 583              	.LVL32:
 420:Drivers/STM32F1xx_HAL_Driver/Src/stm32f1xx_hal_adc_ex.c ****         {
 584              		.loc 1 420 47 discriminator 1 view .LVU173
 585 004e 801B     		subs	r0, r0, r6
 420:Drivers/STM32F1xx_HAL_Driver/Src/stm32f1xx_hal_adc_ex.c ****         {
 586              		.loc 1 420 28 discriminator 1 view .LVU174
 587 0050 A042     		cmp	r0, r4
 588 0052 E3D9     		bls	.L49
 589 0054 EBE7     		b	.L50
ARM GAS  C:\Users\wyx12\AppData\Local\Temp\ccMKDd7z.s 			page 20


 590              	.LVL33:
 591              	.L74:
 432:Drivers/STM32F1xx_HAL_Driver/Src/stm32f1xx_hal_adc_ex.c ****           }
 433:Drivers/STM32F1xx_HAL_Driver/Src/stm32f1xx_hal_adc_ex.c ****         }
 434:Drivers/STM32F1xx_HAL_Driver/Src/stm32f1xx_hal_adc_ex.c ****       }
 435:Drivers/STM32F1xx_HAL_Driver/Src/stm32f1xx_hal_adc_ex.c ****     }
 436:Drivers/STM32F1xx_HAL_Driver/Src/stm32f1xx_hal_adc_ex.c ****   }
 437:Drivers/STM32F1xx_HAL_Driver/Src/stm32f1xx_hal_adc_ex.c ****   else
 438:Drivers/STM32F1xx_HAL_Driver/Src/stm32f1xx_hal_adc_ex.c ****   {
 439:Drivers/STM32F1xx_HAL_Driver/Src/stm32f1xx_hal_adc_ex.c ****     /* Replace polling by wait for maximum conversion time */
 440:Drivers/STM32F1xx_HAL_Driver/Src/stm32f1xx_hal_adc_ex.c ****     /*  - Computation of CPU clock cycles corresponding to ADC clock cycles   */
 441:Drivers/STM32F1xx_HAL_Driver/Src/stm32f1xx_hal_adc_ex.c ****     /*    and ADC maximum conversion cycles on all channels.                  */
 442:Drivers/STM32F1xx_HAL_Driver/Src/stm32f1xx_hal_adc_ex.c ****     /*  - Wait for the expected ADC clock cycles delay                        */
 443:Drivers/STM32F1xx_HAL_Driver/Src/stm32f1xx_hal_adc_ex.c ****     Conversion_Timeout_CPU_cycles_max = ((SystemCoreClock
 592              		.loc 1 443 5 is_stmt 1 view .LVU175
 444:Drivers/STM32F1xx_HAL_Driver/Src/stm32f1xx_hal_adc_ex.c ****                                           / HAL_RCCEx_GetPeriphCLKFreq(RCC_PERIPHCLK_ADC))
 593              		.loc 1 444 43 is_stmt 0 view .LVU176
 594 0056 444B     		ldr	r3, .L78
 595 0058 1F68     		ldr	r7, [r3]
 596              		.loc 1 444 45 view .LVU177
 597 005a 0220     		movs	r0, #2
 598              	.LVL34:
 599              		.loc 1 444 45 view .LVU178
 600 005c FFF7FEFF 		bl	HAL_RCCEx_GetPeriphCLKFreq
 601              	.LVL35:
 602              		.loc 1 444 43 view .LVU179
 603 0060 B7FBF0F7 		udiv	r7, r7, r0
 445:Drivers/STM32F1xx_HAL_Driver/Src/stm32f1xx_hal_adc_ex.c ****                                          * ADC_CONVCYCLES_MAX_RANGE(hadc)                 );
 604              		.loc 1 445 44 view .LVU180
 605 0064 2B68     		ldr	r3, [r5]
 606 0066 1969     		ldr	r1, [r3, #16]
 607 0068 404A     		ldr	r2, .L78+4
 608 006a 1142     		tst	r1, r2
 609 006c 0ED1     		bne	.L55
 610              		.loc 1 445 44 discriminator 1 view .LVU181
 611 006e D968     		ldr	r1, [r3, #12]
 612 0070 02F15C42 		add	r2, r2, #-603979776
 613 0074 1142     		tst	r1, r2
 614 0076 09D1     		bne	.L55
 615              		.loc 1 445 44 discriminator 3 view .LVU182
 616 0078 1969     		ldr	r1, [r3, #16]
 617 007a 3D4A     		ldr	r2, .L78+8
 618 007c 1142     		tst	r1, r2
 619 007e 18D1     		bne	.L63
 620              		.loc 1 445 44 discriminator 5 view .LVU183
 621 0080 DA68     		ldr	r2, [r3, #12]
 622 0082 3C4B     		ldr	r3, .L78+12
 623 0084 1A42     		tst	r2, r3
 624 0086 16D0     		beq	.L64
 625              		.loc 1 445 44 view .LVU184
 626 0088 2923     		movs	r3, #41
 627 008a 19E0     		b	.L56
 628              	.L55:
 629              		.loc 1 445 44 discriminator 4 view .LVU185
 630 008c 1969     		ldr	r1, [r3, #16]
 631 008e 384A     		ldr	r2, .L78+8
 632 0090 1142     		tst	r1, r2
ARM GAS  C:\Users\wyx12\AppData\Local\Temp\ccMKDd7z.s 			page 21


 633 0092 04D1     		bne	.L57
 634              		.loc 1 445 44 discriminator 11 view .LVU186
 635 0094 D968     		ldr	r1, [r3, #12]
 636 0096 02F16E42 		add	r2, r2, #-301989888
 637 009a 1142     		tst	r1, r2
 638 009c 0DD0     		beq	.L65
 639              	.L57:
 640              		.loc 1 445 44 discriminator 14 view .LVU187
 641 009e 1969     		ldr	r1, [r3, #16]
 642 00a0 354A     		ldr	r2, .L78+16
 643 00a2 0A40     		ands	r2, r2, r1
 644 00a4 5AB9     		cbnz	r2, .L66
 645              		.loc 1 445 44 discriminator 15 view .LVU188
 646 00a6 DA68     		ldr	r2, [r3, #12]
 647 00a8 334B     		ldr	r3, .L78+16
 648 00aa 1340     		ands	r3, r3, r2
 649 00ac 5BB1     		cbz	r3, .L67
 650              		.loc 1 445 44 view .LVU189
 651 00ae FC23     		movs	r3, #252
 652 00b0 06E0     		b	.L56
 653              	.L63:
 654 00b2 2923     		movs	r3, #41
 655 00b4 04E0     		b	.L56
 656              	.L64:
 657 00b6 1423     		movs	r3, #20
 658 00b8 02E0     		b	.L56
 659              	.L65:
 660 00ba 5423     		movs	r3, #84
 661 00bc 00E0     		b	.L56
 662              	.L66:
 663 00be FC23     		movs	r3, #252
 664              	.L56:
 443:Drivers/STM32F1xx_HAL_Driver/Src/stm32f1xx_hal_adc_ex.c ****                                           / HAL_RCCEx_GetPeriphCLKFreq(RCC_PERIPHCLK_ADC))
 665              		.loc 1 443 39 view .LVU190
 666 00c0 03FB07F7 		mul	r7, r3, r7
 667              	.LVL36:
 446:Drivers/STM32F1xx_HAL_Driver/Src/stm32f1xx_hal_adc_ex.c ****     
 447:Drivers/STM32F1xx_HAL_Driver/Src/stm32f1xx_hal_adc_ex.c ****     while(Conversion_Timeout_CPU_cycles < Conversion_Timeout_CPU_cycles_max)
 668              		.loc 1 447 5 is_stmt 1 view .LVU191
 669              		.loc 1 447 10 is_stmt 0 view .LVU192
 670 00c4 07E0     		b	.L58
 671              	.LVL37:
 672              	.L67:
 445:Drivers/STM32F1xx_HAL_Driver/Src/stm32f1xx_hal_adc_ex.c ****     
 673              		.loc 1 445 44 view .LVU193
 674 00c6 5423     		movs	r3, #84
 675 00c8 FAE7     		b	.L56
 676              	.LVL38:
 677              	.L60:
 448:Drivers/STM32F1xx_HAL_Driver/Src/stm32f1xx_hal_adc_ex.c ****     {
 449:Drivers/STM32F1xx_HAL_Driver/Src/stm32f1xx_hal_adc_ex.c ****       /* Check if timeout is disabled (set to infinite wait) */
 450:Drivers/STM32F1xx_HAL_Driver/Src/stm32f1xx_hal_adc_ex.c ****       if(Timeout != HAL_MAX_DELAY)
 451:Drivers/STM32F1xx_HAL_Driver/Src/stm32f1xx_hal_adc_ex.c ****       {
 452:Drivers/STM32F1xx_HAL_Driver/Src/stm32f1xx_hal_adc_ex.c ****         if((Timeout == 0)||((HAL_GetTick() - tickstart ) > Timeout))
 453:Drivers/STM32F1xx_HAL_Driver/Src/stm32f1xx_hal_adc_ex.c ****         {
 454:Drivers/STM32F1xx_HAL_Driver/Src/stm32f1xx_hal_adc_ex.c ****           /* New check to avoid false timeout detection in case of preemption */
 455:Drivers/STM32F1xx_HAL_Driver/Src/stm32f1xx_hal_adc_ex.c ****           if(Conversion_Timeout_CPU_cycles < Conversion_Timeout_CPU_cycles_max)
ARM GAS  C:\Users\wyx12\AppData\Local\Temp\ccMKDd7z.s 			page 22


 678              		.loc 1 455 11 is_stmt 1 view .LVU194
 679              		.loc 1 455 44 is_stmt 0 view .LVU195
 680 00ca 019B     		ldr	r3, [sp, #4]
 681              		.loc 1 455 13 view .LVU196
 682 00cc BB42     		cmp	r3, r7
 683 00ce 10D3     		bcc	.L76
 684              	.L59:
 456:Drivers/STM32F1xx_HAL_Driver/Src/stm32f1xx_hal_adc_ex.c ****           {
 457:Drivers/STM32F1xx_HAL_Driver/Src/stm32f1xx_hal_adc_ex.c ****             /* Update ADC state machine to timeout */
 458:Drivers/STM32F1xx_HAL_Driver/Src/stm32f1xx_hal_adc_ex.c ****             SET_BIT(hadc->State, HAL_ADC_STATE_TIMEOUT);
 459:Drivers/STM32F1xx_HAL_Driver/Src/stm32f1xx_hal_adc_ex.c **** 
 460:Drivers/STM32F1xx_HAL_Driver/Src/stm32f1xx_hal_adc_ex.c ****             /* Process unlocked */
 461:Drivers/STM32F1xx_HAL_Driver/Src/stm32f1xx_hal_adc_ex.c ****             __HAL_UNLOCK(hadc);
 462:Drivers/STM32F1xx_HAL_Driver/Src/stm32f1xx_hal_adc_ex.c **** 
 463:Drivers/STM32F1xx_HAL_Driver/Src/stm32f1xx_hal_adc_ex.c ****             return HAL_TIMEOUT;
 464:Drivers/STM32F1xx_HAL_Driver/Src/stm32f1xx_hal_adc_ex.c ****           }
 465:Drivers/STM32F1xx_HAL_Driver/Src/stm32f1xx_hal_adc_ex.c ****         }
 466:Drivers/STM32F1xx_HAL_Driver/Src/stm32f1xx_hal_adc_ex.c ****       }
 467:Drivers/STM32F1xx_HAL_Driver/Src/stm32f1xx_hal_adc_ex.c ****       Conversion_Timeout_CPU_cycles ++;
 685              		.loc 1 467 7 is_stmt 1 view .LVU197
 686              		.loc 1 467 37 is_stmt 0 view .LVU198
 687 00d0 019B     		ldr	r3, [sp, #4]
 688 00d2 0133     		adds	r3, r3, #1
 689 00d4 0193     		str	r3, [sp, #4]
 690              	.L58:
 447:Drivers/STM32F1xx_HAL_Driver/Src/stm32f1xx_hal_adc_ex.c ****     {
 691              		.loc 1 447 41 is_stmt 1 view .LVU199
 692 00d6 019B     		ldr	r3, [sp, #4]
 693 00d8 BB42     		cmp	r3, r7
 694 00da 13D2     		bcs	.L54
 450:Drivers/STM32F1xx_HAL_Driver/Src/stm32f1xx_hal_adc_ex.c ****       {
 695              		.loc 1 450 7 view .LVU200
 450:Drivers/STM32F1xx_HAL_Driver/Src/stm32f1xx_hal_adc_ex.c ****       {
 696              		.loc 1 450 9 is_stmt 0 view .LVU201
 697 00dc B4F1FF3F 		cmp	r4, #-1
 698 00e0 F6D0     		beq	.L59
 452:Drivers/STM32F1xx_HAL_Driver/Src/stm32f1xx_hal_adc_ex.c ****         {
 699              		.loc 1 452 9 is_stmt 1 view .LVU202
 452:Drivers/STM32F1xx_HAL_Driver/Src/stm32f1xx_hal_adc_ex.c ****         {
 700              		.loc 1 452 11 is_stmt 0 view .LVU203
 701 00e2 002C     		cmp	r4, #0
 702 00e4 F1D0     		beq	.L60
 452:Drivers/STM32F1xx_HAL_Driver/Src/stm32f1xx_hal_adc_ex.c ****         {
 703              		.loc 1 452 30 discriminator 1 view .LVU204
 704 00e6 FFF7FEFF 		bl	HAL_GetTick
 705              	.LVL39:
 452:Drivers/STM32F1xx_HAL_Driver/Src/stm32f1xx_hal_adc_ex.c ****         {
 706              		.loc 1 452 44 discriminator 1 view .LVU205
 707 00ea 801B     		subs	r0, r0, r6
 452:Drivers/STM32F1xx_HAL_Driver/Src/stm32f1xx_hal_adc_ex.c ****         {
 708              		.loc 1 452 26 discriminator 1 view .LVU206
 709 00ec A042     		cmp	r0, r4
 710 00ee EFD9     		bls	.L59
 711 00f0 EBE7     		b	.L60
 712              	.L76:
 458:Drivers/STM32F1xx_HAL_Driver/Src/stm32f1xx_hal_adc_ex.c **** 
 713              		.loc 1 458 13 is_stmt 1 view .LVU207
ARM GAS  C:\Users\wyx12\AppData\Local\Temp\ccMKDd7z.s 			page 23


 714 00f2 AB6A     		ldr	r3, [r5, #40]
 715 00f4 43F00403 		orr	r3, r3, #4
 716 00f8 AB62     		str	r3, [r5, #40]
 461:Drivers/STM32F1xx_HAL_Driver/Src/stm32f1xx_hal_adc_ex.c **** 
 717              		.loc 1 461 13 view .LVU208
 461:Drivers/STM32F1xx_HAL_Driver/Src/stm32f1xx_hal_adc_ex.c **** 
 718              		.loc 1 461 13 view .LVU209
 719 00fa 0023     		movs	r3, #0
 720 00fc 85F82430 		strb	r3, [r5, #36]
 461:Drivers/STM32F1xx_HAL_Driver/Src/stm32f1xx_hal_adc_ex.c **** 
 721              		.loc 1 461 13 view .LVU210
 463:Drivers/STM32F1xx_HAL_Driver/Src/stm32f1xx_hal_adc_ex.c ****           }
 722              		.loc 1 463 13 view .LVU211
 463:Drivers/STM32F1xx_HAL_Driver/Src/stm32f1xx_hal_adc_ex.c ****           }
 723              		.loc 1 463 20 is_stmt 0 view .LVU212
 724 0100 0320     		movs	r0, #3
 725 0102 2BE0     		b	.L52
 726              	.LVL40:
 727              	.L54:
 468:Drivers/STM32F1xx_HAL_Driver/Src/stm32f1xx_hal_adc_ex.c ****     }
 469:Drivers/STM32F1xx_HAL_Driver/Src/stm32f1xx_hal_adc_ex.c ****   }
 470:Drivers/STM32F1xx_HAL_Driver/Src/stm32f1xx_hal_adc_ex.c **** 
 471:Drivers/STM32F1xx_HAL_Driver/Src/stm32f1xx_hal_adc_ex.c ****   /* Clear injected group conversion flag */
 472:Drivers/STM32F1xx_HAL_Driver/Src/stm32f1xx_hal_adc_ex.c ****   /* Note: On STM32F1 ADC, clear regular conversion flag raised               */
 473:Drivers/STM32F1xx_HAL_Driver/Src/stm32f1xx_hal_adc_ex.c ****   /* simultaneously.                                                          */
 474:Drivers/STM32F1xx_HAL_Driver/Src/stm32f1xx_hal_adc_ex.c ****   __HAL_ADC_CLEAR_FLAG(hadc, ADC_FLAG_JSTRT | ADC_FLAG_JEOC | ADC_FLAG_EOC);
 728              		.loc 1 474 3 is_stmt 1 view .LVU213
 729 0104 2B68     		ldr	r3, [r5]
 730 0106 6FF00E02 		mvn	r2, #14
 731 010a 1A60     		str	r2, [r3]
 475:Drivers/STM32F1xx_HAL_Driver/Src/stm32f1xx_hal_adc_ex.c ****   
 476:Drivers/STM32F1xx_HAL_Driver/Src/stm32f1xx_hal_adc_ex.c ****   /* Update ADC state machine */
 477:Drivers/STM32F1xx_HAL_Driver/Src/stm32f1xx_hal_adc_ex.c ****   SET_BIT(hadc->State, HAL_ADC_STATE_INJ_EOC);
 732              		.loc 1 477 3 view .LVU214
 733 010c AB6A     		ldr	r3, [r5, #40]
 734 010e 43F40053 		orr	r3, r3, #8192
 735 0112 AB62     		str	r3, [r5, #40]
 478:Drivers/STM32F1xx_HAL_Driver/Src/stm32f1xx_hal_adc_ex.c ****   
 479:Drivers/STM32F1xx_HAL_Driver/Src/stm32f1xx_hal_adc_ex.c ****   /* Determine whether any further conversion upcoming on group injected      */
 480:Drivers/STM32F1xx_HAL_Driver/Src/stm32f1xx_hal_adc_ex.c ****   /* by external trigger or by automatic injected conversion                  */
 481:Drivers/STM32F1xx_HAL_Driver/Src/stm32f1xx_hal_adc_ex.c ****   /* from group regular.                                                      */
 482:Drivers/STM32F1xx_HAL_Driver/Src/stm32f1xx_hal_adc_ex.c ****   if(ADC_IS_SOFTWARE_START_INJECTED(hadc)                     || 
 736              		.loc 1 482 3 view .LVU215
 737              		.loc 1 482 6 is_stmt 0 view .LVU216
 738 0114 2A68     		ldr	r2, [r5]
 739 0116 9368     		ldr	r3, [r2, #8]
 740 0118 03F4E043 		and	r3, r3, #28672
 741              		.loc 1 482 5 view .LVU217
 742 011c B3F5E04F 		cmp	r3, #28672
 743 0120 0DD0     		beq	.L62
 483:Drivers/STM32F1xx_HAL_Driver/Src/stm32f1xx_hal_adc_ex.c ****      (HAL_IS_BIT_CLR(hadc->Instance->CR1, ADC_CR1_JAUTO) &&     
 744              		.loc 1 483 7 discriminator 1 view .LVU218
 745 0122 5368     		ldr	r3, [r2, #4]
 482:Drivers/STM32F1xx_HAL_Driver/Src/stm32f1xx_hal_adc_ex.c ****      (HAL_IS_BIT_CLR(hadc->Instance->CR1, ADC_CR1_JAUTO) &&     
 746              		.loc 1 482 63 discriminator 1 view .LVU219
 747 0124 13F4806F 		tst	r3, #1024
 748 0128 17D1     		bne	.L68
ARM GAS  C:\Users\wyx12\AppData\Local\Temp\ccMKDd7z.s 			page 24


 484:Drivers/STM32F1xx_HAL_Driver/Src/stm32f1xx_hal_adc_ex.c ****      (ADC_IS_SOFTWARE_START_REGULAR(hadc)        &&
 749              		.loc 1 484 7 view .LVU220
 750 012a 9368     		ldr	r3, [r2, #8]
 751 012c 03F46023 		and	r3, r3, #917504
 483:Drivers/STM32F1xx_HAL_Driver/Src/stm32f1xx_hal_adc_ex.c ****      (HAL_IS_BIT_CLR(hadc->Instance->CR1, ADC_CR1_JAUTO) &&     
 752              		.loc 1 483 58 view .LVU221
 753 0130 B3F5602F 		cmp	r3, #917504
 754 0134 01D0     		beq	.L77
 485:Drivers/STM32F1xx_HAL_Driver/Src/stm32f1xx_hal_adc_ex.c ****       (hadc->Init.ContinuousConvMode == DISABLE)   )        )   )
 486:Drivers/STM32F1xx_HAL_Driver/Src/stm32f1xx_hal_adc_ex.c ****   {
 487:Drivers/STM32F1xx_HAL_Driver/Src/stm32f1xx_hal_adc_ex.c ****     /* Set ADC state */
 488:Drivers/STM32F1xx_HAL_Driver/Src/stm32f1xx_hal_adc_ex.c ****     CLEAR_BIT(hadc->State, HAL_ADC_STATE_INJ_BUSY);   
 489:Drivers/STM32F1xx_HAL_Driver/Src/stm32f1xx_hal_adc_ex.c ****     
 490:Drivers/STM32F1xx_HAL_Driver/Src/stm32f1xx_hal_adc_ex.c ****     if (HAL_IS_BIT_CLR(hadc->State, HAL_ADC_STATE_REG_BUSY))
 491:Drivers/STM32F1xx_HAL_Driver/Src/stm32f1xx_hal_adc_ex.c ****     {
 492:Drivers/STM32F1xx_HAL_Driver/Src/stm32f1xx_hal_adc_ex.c ****       SET_BIT(hadc->State, HAL_ADC_STATE_READY);
 493:Drivers/STM32F1xx_HAL_Driver/Src/stm32f1xx_hal_adc_ex.c ****     }
 494:Drivers/STM32F1xx_HAL_Driver/Src/stm32f1xx_hal_adc_ex.c ****   }
 495:Drivers/STM32F1xx_HAL_Driver/Src/stm32f1xx_hal_adc_ex.c ****   
 496:Drivers/STM32F1xx_HAL_Driver/Src/stm32f1xx_hal_adc_ex.c ****   /* Return ADC state */
 497:Drivers/STM32F1xx_HAL_Driver/Src/stm32f1xx_hal_adc_ex.c ****   return HAL_OK;
 755              		.loc 1 497 10 view .LVU222
 756 0136 0020     		movs	r0, #0
 757 0138 10E0     		b	.L52
 758              	.L77:
 485:Drivers/STM32F1xx_HAL_Driver/Src/stm32f1xx_hal_adc_ex.c ****       (hadc->Init.ContinuousConvMode == DISABLE)   )        )   )
 759              		.loc 1 485 18 view .LVU223
 760 013a 2B7B     		ldrb	r3, [r5, #12]	@ zero_extendqisi2
 484:Drivers/STM32F1xx_HAL_Driver/Src/stm32f1xx_hal_adc_ex.c ****      (ADC_IS_SOFTWARE_START_REGULAR(hadc)        &&
 761              		.loc 1 484 50 view .LVU224
 762 013c 83B9     		cbnz	r3, .L70
 763              	.L62:
 488:Drivers/STM32F1xx_HAL_Driver/Src/stm32f1xx_hal_adc_ex.c ****     
 764              		.loc 1 488 5 is_stmt 1 view .LVU225
 765 013e AB6A     		ldr	r3, [r5, #40]
 766 0140 23F48053 		bic	r3, r3, #4096
 767 0144 AB62     		str	r3, [r5, #40]
 490:Drivers/STM32F1xx_HAL_Driver/Src/stm32f1xx_hal_adc_ex.c ****     {
 768              		.loc 1 490 5 view .LVU226
 490:Drivers/STM32F1xx_HAL_Driver/Src/stm32f1xx_hal_adc_ex.c ****     {
 769              		.loc 1 490 9 is_stmt 0 view .LVU227
 770 0146 AB6A     		ldr	r3, [r5, #40]
 490:Drivers/STM32F1xx_HAL_Driver/Src/stm32f1xx_hal_adc_ex.c ****     {
 771              		.loc 1 490 8 view .LVU228
 772 0148 13F4807F 		tst	r3, #256
 773 014c 0AD1     		bne	.L71
 492:Drivers/STM32F1xx_HAL_Driver/Src/stm32f1xx_hal_adc_ex.c ****     }
 774              		.loc 1 492 7 is_stmt 1 view .LVU229
 775 014e AB6A     		ldr	r3, [r5, #40]
 776 0150 43F00103 		orr	r3, r3, #1
 777 0154 AB62     		str	r3, [r5, #40]
 778              		.loc 1 497 10 is_stmt 0 view .LVU230
 779 0156 0020     		movs	r0, #0
 780 0158 00E0     		b	.L52
 781              	.L68:
 782              		.loc 1 497 10 view .LVU231
 783 015a 0020     		movs	r0, #0
ARM GAS  C:\Users\wyx12\AppData\Local\Temp\ccMKDd7z.s 			page 25


 784              	.L52:
 498:Drivers/STM32F1xx_HAL_Driver/Src/stm32f1xx_hal_adc_ex.c **** }
 785              		.loc 1 498 1 view .LVU232
 786 015c 03B0     		add	sp, sp, #12
 787              	.LCFI10:
 788              		.cfi_remember_state
 789              		.cfi_def_cfa_offset 20
 790              		@ sp needed
 791 015e F0BD     		pop	{r4, r5, r6, r7, pc}
 792              	.LVL41:
 793              	.L70:
 794              	.LCFI11:
 795              		.cfi_restore_state
 497:Drivers/STM32F1xx_HAL_Driver/Src/stm32f1xx_hal_adc_ex.c **** }
 796              		.loc 1 497 10 view .LVU233
 797 0160 0020     		movs	r0, #0
 798 0162 FBE7     		b	.L52
 799              	.L71:
 497:Drivers/STM32F1xx_HAL_Driver/Src/stm32f1xx_hal_adc_ex.c **** }
 800              		.loc 1 497 10 view .LVU234
 801 0164 0020     		movs	r0, #0
 802 0166 F9E7     		b	.L52
 803              	.L79:
 804              		.align	2
 805              	.L78:
 806 0168 00000000 		.word	SystemCoreClock
 807 016c 24499224 		.word	613566756
 808 0170 92244912 		.word	306783378
 809 0174 92244900 		.word	4793490
 810 0178 49922400 		.word	2396745
 811              		.cfi_endproc
 812              	.LFE68:
 814              		.section	.text.HAL_ADCEx_InjectedStart_IT,"ax",%progbits
 815              		.align	1
 816              		.global	HAL_ADCEx_InjectedStart_IT
 817              		.syntax unified
 818              		.thumb
 819              		.thumb_func
 821              	HAL_ADCEx_InjectedStart_IT:
 822              	.LVL42:
 823              	.LFB69:
 499:Drivers/STM32F1xx_HAL_Driver/Src/stm32f1xx_hal_adc_ex.c **** 
 500:Drivers/STM32F1xx_HAL_Driver/Src/stm32f1xx_hal_adc_ex.c **** /**
 501:Drivers/STM32F1xx_HAL_Driver/Src/stm32f1xx_hal_adc_ex.c ****   * @brief  Enables ADC, starts conversion of injected group with interruption.
 502:Drivers/STM32F1xx_HAL_Driver/Src/stm32f1xx_hal_adc_ex.c ****   *          - JEOC (end of conversion of injected group)
 503:Drivers/STM32F1xx_HAL_Driver/Src/stm32f1xx_hal_adc_ex.c ****   *         Each of these interruptions has its dedicated callback function.
 504:Drivers/STM32F1xx_HAL_Driver/Src/stm32f1xx_hal_adc_ex.c ****   * @param  hadc: ADC handle
 505:Drivers/STM32F1xx_HAL_Driver/Src/stm32f1xx_hal_adc_ex.c ****   * @retval HAL status.
 506:Drivers/STM32F1xx_HAL_Driver/Src/stm32f1xx_hal_adc_ex.c ****   */
 507:Drivers/STM32F1xx_HAL_Driver/Src/stm32f1xx_hal_adc_ex.c **** HAL_StatusTypeDef HAL_ADCEx_InjectedStart_IT(ADC_HandleTypeDef* hadc)
 508:Drivers/STM32F1xx_HAL_Driver/Src/stm32f1xx_hal_adc_ex.c **** {
 824              		.loc 1 508 1 is_stmt 1 view -0
 825              		.cfi_startproc
 826              		@ args = 0, pretend = 0, frame = 0
 827              		@ frame_needed = 0, uses_anonymous_args = 0
 509:Drivers/STM32F1xx_HAL_Driver/Src/stm32f1xx_hal_adc_ex.c ****   HAL_StatusTypeDef tmp_hal_status = HAL_OK;
 828              		.loc 1 509 3 view .LVU236
ARM GAS  C:\Users\wyx12\AppData\Local\Temp\ccMKDd7z.s 			page 26


 510:Drivers/STM32F1xx_HAL_Driver/Src/stm32f1xx_hal_adc_ex.c ****   
 511:Drivers/STM32F1xx_HAL_Driver/Src/stm32f1xx_hal_adc_ex.c ****   /* Check the parameters */
 512:Drivers/STM32F1xx_HAL_Driver/Src/stm32f1xx_hal_adc_ex.c ****   assert_param(IS_ADC_ALL_INSTANCE(hadc->Instance));
 829              		.loc 1 512 3 view .LVU237
 513:Drivers/STM32F1xx_HAL_Driver/Src/stm32f1xx_hal_adc_ex.c ****   
 514:Drivers/STM32F1xx_HAL_Driver/Src/stm32f1xx_hal_adc_ex.c ****   /* Process locked */
 515:Drivers/STM32F1xx_HAL_Driver/Src/stm32f1xx_hal_adc_ex.c ****   __HAL_LOCK(hadc);
 830              		.loc 1 515 3 view .LVU238
 831              		.loc 1 515 3 view .LVU239
 832 0000 90F82430 		ldrb	r3, [r0, #36]	@ zero_extendqisi2
 833 0004 012B     		cmp	r3, #1
 834 0006 57D0     		beq	.L89
 508:Drivers/STM32F1xx_HAL_Driver/Src/stm32f1xx_hal_adc_ex.c ****   HAL_StatusTypeDef tmp_hal_status = HAL_OK;
 835              		.loc 1 508 1 is_stmt 0 discriminator 2 view .LVU240
 836 0008 10B5     		push	{r4, lr}
 837              	.LCFI12:
 838              		.cfi_def_cfa_offset 8
 839              		.cfi_offset 4, -8
 840              		.cfi_offset 14, -4
 841 000a 0446     		mov	r4, r0
 842              		.loc 1 515 3 is_stmt 1 discriminator 2 view .LVU241
 843 000c 0123     		movs	r3, #1
 844 000e 80F82430 		strb	r3, [r0, #36]
 845              		.loc 1 515 3 discriminator 2 view .LVU242
 516:Drivers/STM32F1xx_HAL_Driver/Src/stm32f1xx_hal_adc_ex.c ****     
 517:Drivers/STM32F1xx_HAL_Driver/Src/stm32f1xx_hal_adc_ex.c ****   /* Enable the ADC peripheral */
 518:Drivers/STM32F1xx_HAL_Driver/Src/stm32f1xx_hal_adc_ex.c ****   tmp_hal_status = ADC_Enable(hadc);
 846              		.loc 1 518 3 discriminator 2 view .LVU243
 847              		.loc 1 518 20 is_stmt 0 discriminator 2 view .LVU244
 848 0012 FFF7FEFF 		bl	ADC_Enable
 849              	.LVL43:
 519:Drivers/STM32F1xx_HAL_Driver/Src/stm32f1xx_hal_adc_ex.c ****   
 520:Drivers/STM32F1xx_HAL_Driver/Src/stm32f1xx_hal_adc_ex.c ****   /* Start conversion if ADC is effectively enabled */
 521:Drivers/STM32F1xx_HAL_Driver/Src/stm32f1xx_hal_adc_ex.c ****   if (tmp_hal_status == HAL_OK)
 850              		.loc 1 521 3 is_stmt 1 discriminator 2 view .LVU245
 851              		.loc 1 521 6 is_stmt 0 discriminator 2 view .LVU246
 852 0016 0028     		cmp	r0, #0
 853 0018 4AD1     		bne	.L82
 522:Drivers/STM32F1xx_HAL_Driver/Src/stm32f1xx_hal_adc_ex.c ****   {
 523:Drivers/STM32F1xx_HAL_Driver/Src/stm32f1xx_hal_adc_ex.c ****     /* Set ADC state                                                          */
 524:Drivers/STM32F1xx_HAL_Driver/Src/stm32f1xx_hal_adc_ex.c ****     /* - Clear state bitfield related to injected group conversion results    */
 525:Drivers/STM32F1xx_HAL_Driver/Src/stm32f1xx_hal_adc_ex.c ****     /* - Set state bitfield related to injected operation                     */
 526:Drivers/STM32F1xx_HAL_Driver/Src/stm32f1xx_hal_adc_ex.c ****     ADC_STATE_CLR_SET(hadc->State,
 854              		.loc 1 526 5 is_stmt 1 view .LVU247
 855 001a A36A     		ldr	r3, [r4, #40]
 856 001c 23F44053 		bic	r3, r3, #12288
 857 0020 23F00103 		bic	r3, r3, #1
 858 0024 43F48053 		orr	r3, r3, #4096
 859 0028 A362     		str	r3, [r4, #40]
 527:Drivers/STM32F1xx_HAL_Driver/Src/stm32f1xx_hal_adc_ex.c ****                       HAL_ADC_STATE_READY | HAL_ADC_STATE_INJ_EOC,
 528:Drivers/STM32F1xx_HAL_Driver/Src/stm32f1xx_hal_adc_ex.c ****                       HAL_ADC_STATE_INJ_BUSY);
 529:Drivers/STM32F1xx_HAL_Driver/Src/stm32f1xx_hal_adc_ex.c ****     
 530:Drivers/STM32F1xx_HAL_Driver/Src/stm32f1xx_hal_adc_ex.c ****     /* Case of independent mode or multimode (for devices with several ADCs): */
 531:Drivers/STM32F1xx_HAL_Driver/Src/stm32f1xx_hal_adc_ex.c ****     /* Set multimode state.                                                   */
 532:Drivers/STM32F1xx_HAL_Driver/Src/stm32f1xx_hal_adc_ex.c ****     if (ADC_NONMULTIMODE_OR_MULTIMODEMASTER(hadc))
 860              		.loc 1 532 5 view .LVU248
 861              		.loc 1 532 9 is_stmt 0 view .LVU249
ARM GAS  C:\Users\wyx12\AppData\Local\Temp\ccMKDd7z.s 			page 27


 862 002a 2268     		ldr	r2, [r4]
 863              		.loc 1 532 8 view .LVU250
 864 002c 234B     		ldr	r3, .L97
 865 002e 9A42     		cmp	r2, r3
 866 0030 24D0     		beq	.L94
 867              	.L83:
 533:Drivers/STM32F1xx_HAL_Driver/Src/stm32f1xx_hal_adc_ex.c ****     {
 534:Drivers/STM32F1xx_HAL_Driver/Src/stm32f1xx_hal_adc_ex.c ****       CLEAR_BIT(hadc->State, HAL_ADC_STATE_MULTIMODE_SLAVE);
 868              		.loc 1 534 7 is_stmt 1 view .LVU251
 869 0032 A36A     		ldr	r3, [r4, #40]
 870 0034 23F48013 		bic	r3, r3, #1048576
 871 0038 A362     		str	r3, [r4, #40]
 872              	.L85:
 535:Drivers/STM32F1xx_HAL_Driver/Src/stm32f1xx_hal_adc_ex.c ****     }
 536:Drivers/STM32F1xx_HAL_Driver/Src/stm32f1xx_hal_adc_ex.c ****     else
 537:Drivers/STM32F1xx_HAL_Driver/Src/stm32f1xx_hal_adc_ex.c ****     {
 538:Drivers/STM32F1xx_HAL_Driver/Src/stm32f1xx_hal_adc_ex.c ****       SET_BIT(hadc->State, HAL_ADC_STATE_MULTIMODE_SLAVE);
 539:Drivers/STM32F1xx_HAL_Driver/Src/stm32f1xx_hal_adc_ex.c ****     }
 540:Drivers/STM32F1xx_HAL_Driver/Src/stm32f1xx_hal_adc_ex.c ****     
 541:Drivers/STM32F1xx_HAL_Driver/Src/stm32f1xx_hal_adc_ex.c ****     /* Check if a regular conversion is ongoing */
 542:Drivers/STM32F1xx_HAL_Driver/Src/stm32f1xx_hal_adc_ex.c ****     /* Note: On this device, there is no ADC error code fields related to     */
 543:Drivers/STM32F1xx_HAL_Driver/Src/stm32f1xx_hal_adc_ex.c ****     /*       conversions on group injected only. In case of conversion on     */
 544:Drivers/STM32F1xx_HAL_Driver/Src/stm32f1xx_hal_adc_ex.c ****     /*       going on group regular, no error code is reset.                  */
 545:Drivers/STM32F1xx_HAL_Driver/Src/stm32f1xx_hal_adc_ex.c ****     if (HAL_IS_BIT_CLR(hadc->State, HAL_ADC_STATE_REG_BUSY))
 873              		.loc 1 545 5 view .LVU252
 874              		.loc 1 545 9 is_stmt 0 view .LVU253
 875 003a A36A     		ldr	r3, [r4, #40]
 876              		.loc 1 545 8 view .LVU254
 877 003c 13F4807F 		tst	r3, #256
 878 0040 01D1     		bne	.L86
 546:Drivers/STM32F1xx_HAL_Driver/Src/stm32f1xx_hal_adc_ex.c ****     {
 547:Drivers/STM32F1xx_HAL_Driver/Src/stm32f1xx_hal_adc_ex.c ****       /* Reset ADC all error code fields */
 548:Drivers/STM32F1xx_HAL_Driver/Src/stm32f1xx_hal_adc_ex.c ****       ADC_CLEAR_ERRORCODE(hadc);
 879              		.loc 1 548 7 is_stmt 1 view .LVU255
 880 0042 0023     		movs	r3, #0
 881 0044 E362     		str	r3, [r4, #44]
 882              	.L86:
 549:Drivers/STM32F1xx_HAL_Driver/Src/stm32f1xx_hal_adc_ex.c ****     }
 550:Drivers/STM32F1xx_HAL_Driver/Src/stm32f1xx_hal_adc_ex.c ****     
 551:Drivers/STM32F1xx_HAL_Driver/Src/stm32f1xx_hal_adc_ex.c ****     /* Process unlocked */
 552:Drivers/STM32F1xx_HAL_Driver/Src/stm32f1xx_hal_adc_ex.c ****     /* Unlock before starting ADC conversions: in case of potential           */
 553:Drivers/STM32F1xx_HAL_Driver/Src/stm32f1xx_hal_adc_ex.c ****     /* interruption, to let the process to ADC IRQ Handler.                   */
 554:Drivers/STM32F1xx_HAL_Driver/Src/stm32f1xx_hal_adc_ex.c ****     __HAL_UNLOCK(hadc);
 883              		.loc 1 554 5 view .LVU256
 884              		.loc 1 554 5 view .LVU257
 885 0046 0023     		movs	r3, #0
 886 0048 84F82430 		strb	r3, [r4, #36]
 887              		.loc 1 554 5 view .LVU258
 555:Drivers/STM32F1xx_HAL_Driver/Src/stm32f1xx_hal_adc_ex.c ****     
 556:Drivers/STM32F1xx_HAL_Driver/Src/stm32f1xx_hal_adc_ex.c ****     /* Clear injected group conversion flag */
 557:Drivers/STM32F1xx_HAL_Driver/Src/stm32f1xx_hal_adc_ex.c ****     /* (To ensure of no unknown state from potential previous ADC operations) */
 558:Drivers/STM32F1xx_HAL_Driver/Src/stm32f1xx_hal_adc_ex.c ****     __HAL_ADC_CLEAR_FLAG(hadc, ADC_FLAG_JEOC);
 888              		.loc 1 558 5 view .LVU259
 889 004c 6FF00403 		mvn	r3, #4
 890 0050 1360     		str	r3, [r2]
 559:Drivers/STM32F1xx_HAL_Driver/Src/stm32f1xx_hal_adc_ex.c ****     
 560:Drivers/STM32F1xx_HAL_Driver/Src/stm32f1xx_hal_adc_ex.c ****     /* Enable end of conversion interrupt for injected channels */
ARM GAS  C:\Users\wyx12\AppData\Local\Temp\ccMKDd7z.s 			page 28


 561:Drivers/STM32F1xx_HAL_Driver/Src/stm32f1xx_hal_adc_ex.c ****     __HAL_ADC_ENABLE_IT(hadc, ADC_IT_JEOC);
 891              		.loc 1 561 5 view .LVU260
 892 0052 2268     		ldr	r2, [r4]
 893 0054 5368     		ldr	r3, [r2, #4]
 894 0056 43F08003 		orr	r3, r3, #128
 895 005a 5360     		str	r3, [r2, #4]
 562:Drivers/STM32F1xx_HAL_Driver/Src/stm32f1xx_hal_adc_ex.c ****     
 563:Drivers/STM32F1xx_HAL_Driver/Src/stm32f1xx_hal_adc_ex.c ****     /* Start conversion of injected group if software start has been selected */
 564:Drivers/STM32F1xx_HAL_Driver/Src/stm32f1xx_hal_adc_ex.c ****     /* and if automatic injected conversion is disabled.                      */
 565:Drivers/STM32F1xx_HAL_Driver/Src/stm32f1xx_hal_adc_ex.c ****     /* If external trigger has been selected, conversion will start at next   */
 566:Drivers/STM32F1xx_HAL_Driver/Src/stm32f1xx_hal_adc_ex.c ****     /* trigger event.                                                         */
 567:Drivers/STM32F1xx_HAL_Driver/Src/stm32f1xx_hal_adc_ex.c ****     /* If automatic injected conversion is enabled, conversion will start     */
 568:Drivers/STM32F1xx_HAL_Driver/Src/stm32f1xx_hal_adc_ex.c ****     /* after next regular group conversion.                                   */
 569:Drivers/STM32F1xx_HAL_Driver/Src/stm32f1xx_hal_adc_ex.c ****     if (HAL_IS_BIT_CLR(hadc->Instance->CR1, ADC_CR1_JAUTO))
 896              		.loc 1 569 5 view .LVU261
 897              		.loc 1 569 9 is_stmt 0 view .LVU262
 898 005c 2368     		ldr	r3, [r4]
 899 005e 5A68     		ldr	r2, [r3, #4]
 900              		.loc 1 569 8 view .LVU263
 901 0060 12F4806F 		tst	r2, #1024
 902 0064 27D1     		bne	.L81
 570:Drivers/STM32F1xx_HAL_Driver/Src/stm32f1xx_hal_adc_ex.c ****     {
 571:Drivers/STM32F1xx_HAL_Driver/Src/stm32f1xx_hal_adc_ex.c ****       if (ADC_IS_SOFTWARE_START_INJECTED(hadc)     &&
 903              		.loc 1 571 7 is_stmt 1 view .LVU264
 904              		.loc 1 571 11 is_stmt 0 view .LVU265
 905 0066 9A68     		ldr	r2, [r3, #8]
 906 0068 02F4E042 		and	r2, r2, #28672
 907              		.loc 1 571 10 view .LVU266
 908 006c B2F5E04F 		cmp	r2, #28672
 909 0070 0FD0     		beq	.L95
 910              	.L87:
 572:Drivers/STM32F1xx_HAL_Driver/Src/stm32f1xx_hal_adc_ex.c ****           ADC_NONMULTIMODE_OR_MULTIMODEMASTER(hadc)  )
 573:Drivers/STM32F1xx_HAL_Driver/Src/stm32f1xx_hal_adc_ex.c ****       {
 574:Drivers/STM32F1xx_HAL_Driver/Src/stm32f1xx_hal_adc_ex.c ****         /* Start ADC conversion on injected group with SW start */
 575:Drivers/STM32F1xx_HAL_Driver/Src/stm32f1xx_hal_adc_ex.c ****         SET_BIT(hadc->Instance->CR2, (ADC_CR2_JSWSTART | ADC_CR2_JEXTTRIG));
 576:Drivers/STM32F1xx_HAL_Driver/Src/stm32f1xx_hal_adc_ex.c ****       }
 577:Drivers/STM32F1xx_HAL_Driver/Src/stm32f1xx_hal_adc_ex.c ****       else
 578:Drivers/STM32F1xx_HAL_Driver/Src/stm32f1xx_hal_adc_ex.c ****       {
 579:Drivers/STM32F1xx_HAL_Driver/Src/stm32f1xx_hal_adc_ex.c ****         /* Start ADC conversion on injected group with external trigger */
 580:Drivers/STM32F1xx_HAL_Driver/Src/stm32f1xx_hal_adc_ex.c ****         SET_BIT(hadc->Instance->CR2, ADC_CR2_JEXTTRIG);
 911              		.loc 1 580 9 is_stmt 1 view .LVU267
 912 0072 9A68     		ldr	r2, [r3, #8]
 913 0074 42F40042 		orr	r2, r2, #32768
 914 0078 9A60     		str	r2, [r3, #8]
 915 007a 1CE0     		b	.L81
 916              	.L94:
 532:Drivers/STM32F1xx_HAL_Driver/Src/stm32f1xx_hal_adc_ex.c ****     {
 917              		.loc 1 532 9 is_stmt 0 discriminator 1 view .LVU268
 918 007c A3F58063 		sub	r3, r3, #1024
 919 0080 5B68     		ldr	r3, [r3, #4]
 920 0082 13F4702F 		tst	r3, #983040
 921 0086 D4D0     		beq	.L83
 538:Drivers/STM32F1xx_HAL_Driver/Src/stm32f1xx_hal_adc_ex.c ****     }
 922              		.loc 1 538 7 is_stmt 1 view .LVU269
 923 0088 A36A     		ldr	r3, [r4, #40]
 924 008a 43F48013 		orr	r3, r3, #1048576
 925 008e A362     		str	r3, [r4, #40]
ARM GAS  C:\Users\wyx12\AppData\Local\Temp\ccMKDd7z.s 			page 29


 926 0090 D3E7     		b	.L85
 927              	.L95:
 571:Drivers/STM32F1xx_HAL_Driver/Src/stm32f1xx_hal_adc_ex.c ****           ADC_NONMULTIMODE_OR_MULTIMODEMASTER(hadc)  )
 928              		.loc 1 571 52 is_stmt 0 discriminator 1 view .LVU270
 929 0092 0A4A     		ldr	r2, .L97
 930 0094 9342     		cmp	r3, r2
 931 0096 04D0     		beq	.L96
 932              	.L88:
 575:Drivers/STM32F1xx_HAL_Driver/Src/stm32f1xx_hal_adc_ex.c ****       }
 933              		.loc 1 575 9 is_stmt 1 view .LVU271
 934 0098 9A68     		ldr	r2, [r3, #8]
 935 009a 42F40212 		orr	r2, r2, #2129920
 936 009e 9A60     		str	r2, [r3, #8]
 937 00a0 09E0     		b	.L81
 938              	.L96:
 572:Drivers/STM32F1xx_HAL_Driver/Src/stm32f1xx_hal_adc_ex.c ****       {
 939              		.loc 1 572 11 is_stmt 0 discriminator 2 view .LVU272
 940 00a2 A2F58062 		sub	r2, r2, #1024
 941 00a6 5268     		ldr	r2, [r2, #4]
 571:Drivers/STM32F1xx_HAL_Driver/Src/stm32f1xx_hal_adc_ex.c ****           ADC_NONMULTIMODE_OR_MULTIMODEMASTER(hadc)  )
 942              		.loc 1 571 52 discriminator 2 view .LVU273
 943 00a8 12F4702F 		tst	r2, #983040
 944 00ac E1D1     		bne	.L87
 945 00ae F3E7     		b	.L88
 946              	.L82:
 581:Drivers/STM32F1xx_HAL_Driver/Src/stm32f1xx_hal_adc_ex.c ****       }
 582:Drivers/STM32F1xx_HAL_Driver/Src/stm32f1xx_hal_adc_ex.c ****     }
 583:Drivers/STM32F1xx_HAL_Driver/Src/stm32f1xx_hal_adc_ex.c ****   }
 584:Drivers/STM32F1xx_HAL_Driver/Src/stm32f1xx_hal_adc_ex.c ****   else
 585:Drivers/STM32F1xx_HAL_Driver/Src/stm32f1xx_hal_adc_ex.c ****   {
 586:Drivers/STM32F1xx_HAL_Driver/Src/stm32f1xx_hal_adc_ex.c ****     /* Process unlocked */
 587:Drivers/STM32F1xx_HAL_Driver/Src/stm32f1xx_hal_adc_ex.c ****     __HAL_UNLOCK(hadc);
 947              		.loc 1 587 5 is_stmt 1 view .LVU274
 948              		.loc 1 587 5 view .LVU275
 949 00b0 0023     		movs	r3, #0
 950 00b2 84F82430 		strb	r3, [r4, #36]
 951              	.L81:
 588:Drivers/STM32F1xx_HAL_Driver/Src/stm32f1xx_hal_adc_ex.c ****   }
 589:Drivers/STM32F1xx_HAL_Driver/Src/stm32f1xx_hal_adc_ex.c ****   
 590:Drivers/STM32F1xx_HAL_Driver/Src/stm32f1xx_hal_adc_ex.c ****   /* Return function status */
 591:Drivers/STM32F1xx_HAL_Driver/Src/stm32f1xx_hal_adc_ex.c ****   return tmp_hal_status;
 592:Drivers/STM32F1xx_HAL_Driver/Src/stm32f1xx_hal_adc_ex.c **** }
 952              		.loc 1 592 1 is_stmt 0 view .LVU276
 953 00b6 10BD     		pop	{r4, pc}
 954              	.LVL44:
 955              	.L89:
 956              	.LCFI13:
 957              		.cfi_def_cfa_offset 0
 958              		.cfi_restore 4
 959              		.cfi_restore 14
 515:Drivers/STM32F1xx_HAL_Driver/Src/stm32f1xx_hal_adc_ex.c ****     
 960              		.loc 1 515 3 view .LVU277
 961 00b8 0220     		movs	r0, #2
 962              	.LVL45:
 963              		.loc 1 592 1 view .LVU278
 964 00ba 7047     		bx	lr
 965              	.L98:
ARM GAS  C:\Users\wyx12\AppData\Local\Temp\ccMKDd7z.s 			page 30


 966              		.align	2
 967              	.L97:
 968 00bc 00280140 		.word	1073817600
 969              		.cfi_endproc
 970              	.LFE69:
 972              		.section	.text.HAL_ADCEx_InjectedStop_IT,"ax",%progbits
 973              		.align	1
 974              		.global	HAL_ADCEx_InjectedStop_IT
 975              		.syntax unified
 976              		.thumb
 977              		.thumb_func
 979              	HAL_ADCEx_InjectedStop_IT:
 980              	.LVL46:
 981              	.LFB70:
 593:Drivers/STM32F1xx_HAL_Driver/Src/stm32f1xx_hal_adc_ex.c **** 
 594:Drivers/STM32F1xx_HAL_Driver/Src/stm32f1xx_hal_adc_ex.c **** /**
 595:Drivers/STM32F1xx_HAL_Driver/Src/stm32f1xx_hal_adc_ex.c ****   * @brief  Stop conversion of injected channels, disable interruption of 
 596:Drivers/STM32F1xx_HAL_Driver/Src/stm32f1xx_hal_adc_ex.c ****   *         end-of-conversion. Disable ADC peripheral if no regular conversion
 597:Drivers/STM32F1xx_HAL_Driver/Src/stm32f1xx_hal_adc_ex.c ****   *         is on going.
 598:Drivers/STM32F1xx_HAL_Driver/Src/stm32f1xx_hal_adc_ex.c ****   * @note   If ADC must be disabled and if conversion is on going on 
 599:Drivers/STM32F1xx_HAL_Driver/Src/stm32f1xx_hal_adc_ex.c ****   *         regular group, function HAL_ADC_Stop must be used to stop both
 600:Drivers/STM32F1xx_HAL_Driver/Src/stm32f1xx_hal_adc_ex.c ****   *         injected and regular groups, and disable the ADC.
 601:Drivers/STM32F1xx_HAL_Driver/Src/stm32f1xx_hal_adc_ex.c ****   * @note   If injected group mode auto-injection is enabled,
 602:Drivers/STM32F1xx_HAL_Driver/Src/stm32f1xx_hal_adc_ex.c ****   *         function HAL_ADC_Stop must be used.
 603:Drivers/STM32F1xx_HAL_Driver/Src/stm32f1xx_hal_adc_ex.c ****   * @param  hadc: ADC handle
 604:Drivers/STM32F1xx_HAL_Driver/Src/stm32f1xx_hal_adc_ex.c ****   * @retval None
 605:Drivers/STM32F1xx_HAL_Driver/Src/stm32f1xx_hal_adc_ex.c ****   */
 606:Drivers/STM32F1xx_HAL_Driver/Src/stm32f1xx_hal_adc_ex.c **** HAL_StatusTypeDef HAL_ADCEx_InjectedStop_IT(ADC_HandleTypeDef* hadc)
 607:Drivers/STM32F1xx_HAL_Driver/Src/stm32f1xx_hal_adc_ex.c **** {
 982              		.loc 1 607 1 is_stmt 1 view -0
 983              		.cfi_startproc
 984              		@ args = 0, pretend = 0, frame = 0
 985              		@ frame_needed = 0, uses_anonymous_args = 0
 608:Drivers/STM32F1xx_HAL_Driver/Src/stm32f1xx_hal_adc_ex.c ****   HAL_StatusTypeDef tmp_hal_status = HAL_OK;
 986              		.loc 1 608 3 view .LVU280
 609:Drivers/STM32F1xx_HAL_Driver/Src/stm32f1xx_hal_adc_ex.c ****   
 610:Drivers/STM32F1xx_HAL_Driver/Src/stm32f1xx_hal_adc_ex.c ****   /* Check the parameters */
 611:Drivers/STM32F1xx_HAL_Driver/Src/stm32f1xx_hal_adc_ex.c ****   assert_param(IS_ADC_ALL_INSTANCE(hadc->Instance));
 987              		.loc 1 611 3 view .LVU281
 612:Drivers/STM32F1xx_HAL_Driver/Src/stm32f1xx_hal_adc_ex.c **** 
 613:Drivers/STM32F1xx_HAL_Driver/Src/stm32f1xx_hal_adc_ex.c ****   /* Process locked */
 614:Drivers/STM32F1xx_HAL_Driver/Src/stm32f1xx_hal_adc_ex.c ****   __HAL_LOCK(hadc);
 988              		.loc 1 614 3 view .LVU282
 989              		.loc 1 614 3 view .LVU283
 990 0000 90F82430 		ldrb	r3, [r0, #36]	@ zero_extendqisi2
 991 0004 012B     		cmp	r3, #1
 992 0006 28D0     		beq	.L103
 607:Drivers/STM32F1xx_HAL_Driver/Src/stm32f1xx_hal_adc_ex.c ****   HAL_StatusTypeDef tmp_hal_status = HAL_OK;
 993              		.loc 1 607 1 is_stmt 0 discriminator 2 view .LVU284
 994 0008 10B5     		push	{r4, lr}
 995              	.LCFI14:
 996              		.cfi_def_cfa_offset 8
 997              		.cfi_offset 4, -8
 998              		.cfi_offset 14, -4
 999 000a 0446     		mov	r4, r0
 1000              		.loc 1 614 3 is_stmt 1 discriminator 2 view .LVU285
 1001 000c 0123     		movs	r3, #1
ARM GAS  C:\Users\wyx12\AppData\Local\Temp\ccMKDd7z.s 			page 31


 1002 000e 80F82430 		strb	r3, [r0, #36]
 1003              		.loc 1 614 3 discriminator 2 view .LVU286
 615:Drivers/STM32F1xx_HAL_Driver/Src/stm32f1xx_hal_adc_ex.c ****     
 616:Drivers/STM32F1xx_HAL_Driver/Src/stm32f1xx_hal_adc_ex.c ****   /* Stop potential conversion and disable ADC peripheral                     */
 617:Drivers/STM32F1xx_HAL_Driver/Src/stm32f1xx_hal_adc_ex.c ****   /* Conditioned to:                                                          */
 618:Drivers/STM32F1xx_HAL_Driver/Src/stm32f1xx_hal_adc_ex.c ****   /* - No conversion on the other group (regular group) is intended to        */
 619:Drivers/STM32F1xx_HAL_Driver/Src/stm32f1xx_hal_adc_ex.c ****   /*   continue (injected and regular groups stop conversion and ADC disable  */
 620:Drivers/STM32F1xx_HAL_Driver/Src/stm32f1xx_hal_adc_ex.c ****   /*   are common)                                                            */
 621:Drivers/STM32F1xx_HAL_Driver/Src/stm32f1xx_hal_adc_ex.c ****   /* - In case of auto-injection mode, HAL_ADC_Stop must be used.             */ 
 622:Drivers/STM32F1xx_HAL_Driver/Src/stm32f1xx_hal_adc_ex.c ****   if(((hadc->State & HAL_ADC_STATE_REG_BUSY) == RESET)  &&
 1004              		.loc 1 622 3 discriminator 2 view .LVU287
 1005              		.loc 1 622 12 is_stmt 0 discriminator 2 view .LVU288
 1006 0012 836A     		ldr	r3, [r0, #40]
 1007              		.loc 1 622 5 discriminator 2 view .LVU289
 1008 0014 13F4807F 		tst	r3, #256
 1009 0018 04D1     		bne	.L101
 623:Drivers/STM32F1xx_HAL_Driver/Src/stm32f1xx_hal_adc_ex.c ****      HAL_IS_BIT_CLR(hadc->Instance->CR1, ADC_CR1_JAUTO)   )
 1010              		.loc 1 623 6 discriminator 1 view .LVU290
 1011 001a 0368     		ldr	r3, [r0]
 1012 001c 5B68     		ldr	r3, [r3, #4]
 622:Drivers/STM32F1xx_HAL_Driver/Src/stm32f1xx_hal_adc_ex.c ****      HAL_IS_BIT_CLR(hadc->Instance->CR1, ADC_CR1_JAUTO)   )
 1013              		.loc 1 622 57 discriminator 1 view .LVU291
 1014 001e 13F4806F 		tst	r3, #1024
 1015 0022 08D0     		beq	.L108
 1016              	.L101:
 624:Drivers/STM32F1xx_HAL_Driver/Src/stm32f1xx_hal_adc_ex.c ****   {
 625:Drivers/STM32F1xx_HAL_Driver/Src/stm32f1xx_hal_adc_ex.c ****     /* Stop potential conversion on going, on regular and injected groups */
 626:Drivers/STM32F1xx_HAL_Driver/Src/stm32f1xx_hal_adc_ex.c ****     /* Disable ADC peripheral */
 627:Drivers/STM32F1xx_HAL_Driver/Src/stm32f1xx_hal_adc_ex.c ****     tmp_hal_status = ADC_ConversionStop_Disable(hadc);
 628:Drivers/STM32F1xx_HAL_Driver/Src/stm32f1xx_hal_adc_ex.c ****     
 629:Drivers/STM32F1xx_HAL_Driver/Src/stm32f1xx_hal_adc_ex.c ****     /* Check if ADC is effectively disabled */
 630:Drivers/STM32F1xx_HAL_Driver/Src/stm32f1xx_hal_adc_ex.c ****     if (tmp_hal_status == HAL_OK)
 631:Drivers/STM32F1xx_HAL_Driver/Src/stm32f1xx_hal_adc_ex.c ****     {
 632:Drivers/STM32F1xx_HAL_Driver/Src/stm32f1xx_hal_adc_ex.c ****       /* Disable ADC end of conversion interrupt for injected channels */
 633:Drivers/STM32F1xx_HAL_Driver/Src/stm32f1xx_hal_adc_ex.c ****       __HAL_ADC_DISABLE_IT(hadc, ADC_IT_JEOC);
 634:Drivers/STM32F1xx_HAL_Driver/Src/stm32f1xx_hal_adc_ex.c ****       
 635:Drivers/STM32F1xx_HAL_Driver/Src/stm32f1xx_hal_adc_ex.c ****       /* Set ADC state */
 636:Drivers/STM32F1xx_HAL_Driver/Src/stm32f1xx_hal_adc_ex.c ****       ADC_STATE_CLR_SET(hadc->State,
 637:Drivers/STM32F1xx_HAL_Driver/Src/stm32f1xx_hal_adc_ex.c ****                         HAL_ADC_STATE_REG_BUSY | HAL_ADC_STATE_INJ_BUSY,
 638:Drivers/STM32F1xx_HAL_Driver/Src/stm32f1xx_hal_adc_ex.c ****                         HAL_ADC_STATE_READY);
 639:Drivers/STM32F1xx_HAL_Driver/Src/stm32f1xx_hal_adc_ex.c ****     }
 640:Drivers/STM32F1xx_HAL_Driver/Src/stm32f1xx_hal_adc_ex.c ****   }
 641:Drivers/STM32F1xx_HAL_Driver/Src/stm32f1xx_hal_adc_ex.c ****   else
 642:Drivers/STM32F1xx_HAL_Driver/Src/stm32f1xx_hal_adc_ex.c ****   {
 643:Drivers/STM32F1xx_HAL_Driver/Src/stm32f1xx_hal_adc_ex.c ****     /* Update ADC state machine to error */
 644:Drivers/STM32F1xx_HAL_Driver/Src/stm32f1xx_hal_adc_ex.c ****     SET_BIT(hadc->State, HAL_ADC_STATE_ERROR_CONFIG);
 1017              		.loc 1 644 5 is_stmt 1 view .LVU292
 1018 0024 A36A     		ldr	r3, [r4, #40]
 1019 0026 43F02003 		orr	r3, r3, #32
 1020 002a A362     		str	r3, [r4, #40]
 645:Drivers/STM32F1xx_HAL_Driver/Src/stm32f1xx_hal_adc_ex.c ****       
 646:Drivers/STM32F1xx_HAL_Driver/Src/stm32f1xx_hal_adc_ex.c ****     tmp_hal_status = HAL_ERROR;
 1021              		.loc 1 646 5 view .LVU293
 1022              	.LVL47:
 1023              		.loc 1 646 20 is_stmt 0 view .LVU294
 1024 002c 0120     		movs	r0, #1
 1025              	.LVL48:
ARM GAS  C:\Users\wyx12\AppData\Local\Temp\ccMKDd7z.s 			page 32


 1026              	.L102:
 647:Drivers/STM32F1xx_HAL_Driver/Src/stm32f1xx_hal_adc_ex.c ****   }
 648:Drivers/STM32F1xx_HAL_Driver/Src/stm32f1xx_hal_adc_ex.c ****   
 649:Drivers/STM32F1xx_HAL_Driver/Src/stm32f1xx_hal_adc_ex.c ****   /* Process unlocked */
 650:Drivers/STM32F1xx_HAL_Driver/Src/stm32f1xx_hal_adc_ex.c ****   __HAL_UNLOCK(hadc);
 1027              		.loc 1 650 3 is_stmt 1 view .LVU295
 1028              		.loc 1 650 3 view .LVU296
 1029 002e 0023     		movs	r3, #0
 1030 0030 84F82430 		strb	r3, [r4, #36]
 1031              		.loc 1 650 3 view .LVU297
 651:Drivers/STM32F1xx_HAL_Driver/Src/stm32f1xx_hal_adc_ex.c ****   
 652:Drivers/STM32F1xx_HAL_Driver/Src/stm32f1xx_hal_adc_ex.c ****   /* Return function status */
 653:Drivers/STM32F1xx_HAL_Driver/Src/stm32f1xx_hal_adc_ex.c ****   return tmp_hal_status;
 1032              		.loc 1 653 3 view .LVU298
 654:Drivers/STM32F1xx_HAL_Driver/Src/stm32f1xx_hal_adc_ex.c **** }
 1033              		.loc 1 654 1 is_stmt 0 view .LVU299
 1034 0034 10BD     		pop	{r4, pc}
 1035              	.LVL49:
 1036              	.L108:
 627:Drivers/STM32F1xx_HAL_Driver/Src/stm32f1xx_hal_adc_ex.c ****     
 1037              		.loc 1 627 5 is_stmt 1 view .LVU300
 627:Drivers/STM32F1xx_HAL_Driver/Src/stm32f1xx_hal_adc_ex.c ****     
 1038              		.loc 1 627 22 is_stmt 0 view .LVU301
 1039 0036 FFF7FEFF 		bl	ADC_ConversionStop_Disable
 1040              	.LVL50:
 630:Drivers/STM32F1xx_HAL_Driver/Src/stm32f1xx_hal_adc_ex.c ****     {
 1041              		.loc 1 630 5 is_stmt 1 view .LVU302
 630:Drivers/STM32F1xx_HAL_Driver/Src/stm32f1xx_hal_adc_ex.c ****     {
 1042              		.loc 1 630 8 is_stmt 0 view .LVU303
 1043 003a 0028     		cmp	r0, #0
 1044 003c F7D1     		bne	.L102
 633:Drivers/STM32F1xx_HAL_Driver/Src/stm32f1xx_hal_adc_ex.c ****       
 1045              		.loc 1 633 7 is_stmt 1 view .LVU304
 1046 003e 2268     		ldr	r2, [r4]
 1047 0040 5368     		ldr	r3, [r2, #4]
 1048 0042 23F08003 		bic	r3, r3, #128
 1049 0046 5360     		str	r3, [r2, #4]
 636:Drivers/STM32F1xx_HAL_Driver/Src/stm32f1xx_hal_adc_ex.c ****                         HAL_ADC_STATE_REG_BUSY | HAL_ADC_STATE_INJ_BUSY,
 1050              		.loc 1 636 7 view .LVU305
 1051 0048 A36A     		ldr	r3, [r4, #40]
 1052 004a 23F48853 		bic	r3, r3, #4352
 1053 004e 23F00103 		bic	r3, r3, #1
 1054 0052 43F00103 		orr	r3, r3, #1
 1055 0056 A362     		str	r3, [r4, #40]
 1056 0058 E9E7     		b	.L102
 1057              	.LVL51:
 1058              	.L103:
 1059              	.LCFI15:
 1060              		.cfi_def_cfa_offset 0
 1061              		.cfi_restore 4
 1062              		.cfi_restore 14
 614:Drivers/STM32F1xx_HAL_Driver/Src/stm32f1xx_hal_adc_ex.c ****     
 1063              		.loc 1 614 3 is_stmt 0 view .LVU306
 1064 005a 0220     		movs	r0, #2
 1065              	.LVL52:
 1066              		.loc 1 654 1 view .LVU307
 1067 005c 7047     		bx	lr
ARM GAS  C:\Users\wyx12\AppData\Local\Temp\ccMKDd7z.s 			page 33


 1068              		.cfi_endproc
 1069              	.LFE70:
 1071              		.section	.text.HAL_ADCEx_MultiModeStart_DMA,"ax",%progbits
 1072              		.align	1
 1073              		.global	HAL_ADCEx_MultiModeStart_DMA
 1074              		.syntax unified
 1075              		.thumb
 1076              		.thumb_func
 1078              	HAL_ADCEx_MultiModeStart_DMA:
 1079              	.LVL53:
 1080              	.LFB71:
 655:Drivers/STM32F1xx_HAL_Driver/Src/stm32f1xx_hal_adc_ex.c **** 
 656:Drivers/STM32F1xx_HAL_Driver/Src/stm32f1xx_hal_adc_ex.c **** #if defined (STM32F103x6) || defined (STM32F103xB) || defined (STM32F105xC) || defined (STM32F107xC
 657:Drivers/STM32F1xx_HAL_Driver/Src/stm32f1xx_hal_adc_ex.c **** /**
 658:Drivers/STM32F1xx_HAL_Driver/Src/stm32f1xx_hal_adc_ex.c ****   * @brief  Enables ADC, starts conversion of regular group and transfers result
 659:Drivers/STM32F1xx_HAL_Driver/Src/stm32f1xx_hal_adc_ex.c ****   *         through DMA.
 660:Drivers/STM32F1xx_HAL_Driver/Src/stm32f1xx_hal_adc_ex.c ****   *         Multimode must have been previously configured using 
 661:Drivers/STM32F1xx_HAL_Driver/Src/stm32f1xx_hal_adc_ex.c ****   *         HAL_ADCEx_MultiModeConfigChannel() function.
 662:Drivers/STM32F1xx_HAL_Driver/Src/stm32f1xx_hal_adc_ex.c ****   *         Interruptions enabled in this function:
 663:Drivers/STM32F1xx_HAL_Driver/Src/stm32f1xx_hal_adc_ex.c ****   *          - DMA transfer complete
 664:Drivers/STM32F1xx_HAL_Driver/Src/stm32f1xx_hal_adc_ex.c ****   *          - DMA half transfer
 665:Drivers/STM32F1xx_HAL_Driver/Src/stm32f1xx_hal_adc_ex.c ****   *         Each of these interruptions has its dedicated callback function.
 666:Drivers/STM32F1xx_HAL_Driver/Src/stm32f1xx_hal_adc_ex.c ****   * @note:  On STM32F1 devices, ADC slave regular group must be configured 
 667:Drivers/STM32F1xx_HAL_Driver/Src/stm32f1xx_hal_adc_ex.c ****   *         with conversion trigger ADC_SOFTWARE_START.
 668:Drivers/STM32F1xx_HAL_Driver/Src/stm32f1xx_hal_adc_ex.c ****   * @note:  ADC slave can be enabled preliminarily using single-mode  
 669:Drivers/STM32F1xx_HAL_Driver/Src/stm32f1xx_hal_adc_ex.c ****   *         HAL_ADC_Start() function.
 670:Drivers/STM32F1xx_HAL_Driver/Src/stm32f1xx_hal_adc_ex.c ****   * @param  hadc: ADC handle of ADC master (handle of ADC slave must not be used)
 671:Drivers/STM32F1xx_HAL_Driver/Src/stm32f1xx_hal_adc_ex.c ****   * @param  pData: The destination Buffer address.
 672:Drivers/STM32F1xx_HAL_Driver/Src/stm32f1xx_hal_adc_ex.c ****   * @param  Length: The length of data to be transferred from ADC peripheral to memory.
 673:Drivers/STM32F1xx_HAL_Driver/Src/stm32f1xx_hal_adc_ex.c ****   * @retval None
 674:Drivers/STM32F1xx_HAL_Driver/Src/stm32f1xx_hal_adc_ex.c ****   */
 675:Drivers/STM32F1xx_HAL_Driver/Src/stm32f1xx_hal_adc_ex.c **** HAL_StatusTypeDef HAL_ADCEx_MultiModeStart_DMA(ADC_HandleTypeDef* hadc, uint32_t* pData, uint32_t L
 676:Drivers/STM32F1xx_HAL_Driver/Src/stm32f1xx_hal_adc_ex.c **** {
 1081              		.loc 1 676 1 is_stmt 1 view -0
 1082              		.cfi_startproc
 1083              		@ args = 0, pretend = 0, frame = 48
 1084              		@ frame_needed = 0, uses_anonymous_args = 0
 1085              		.loc 1 676 1 is_stmt 0 view .LVU309
 1086 0000 F0B5     		push	{r4, r5, r6, r7, lr}
 1087              	.LCFI16:
 1088              		.cfi_def_cfa_offset 20
 1089              		.cfi_offset 4, -20
 1090              		.cfi_offset 5, -16
 1091              		.cfi_offset 6, -12
 1092              		.cfi_offset 7, -8
 1093              		.cfi_offset 14, -4
 1094 0002 8DB0     		sub	sp, sp, #52
 1095              	.LCFI17:
 1096              		.cfi_def_cfa_offset 72
 1097 0004 0446     		mov	r4, r0
 1098 0006 0D46     		mov	r5, r1
 1099 0008 1746     		mov	r7, r2
 677:Drivers/STM32F1xx_HAL_Driver/Src/stm32f1xx_hal_adc_ex.c ****   HAL_StatusTypeDef tmp_hal_status = HAL_OK;
 1100              		.loc 1 677 3 is_stmt 1 view .LVU310
 1101              	.LVL54:
 678:Drivers/STM32F1xx_HAL_Driver/Src/stm32f1xx_hal_adc_ex.c ****   ADC_HandleTypeDef tmphadcSlave={0};
 1102              		.loc 1 678 3 view .LVU311
ARM GAS  C:\Users\wyx12\AppData\Local\Temp\ccMKDd7z.s 			page 34


 1103              		.loc 1 678 21 is_stmt 0 view .LVU312
 1104 000a 3022     		movs	r2, #48
 1105              	.LVL55:
 1106              		.loc 1 678 21 view .LVU313
 1107 000c 0021     		movs	r1, #0
 1108              	.LVL56:
 1109              		.loc 1 678 21 view .LVU314
 1110 000e 6846     		mov	r0, sp
 1111              	.LVL57:
 1112              		.loc 1 678 21 view .LVU315
 1113 0010 FFF7FEFF 		bl	memset
 1114              	.LVL58:
 679:Drivers/STM32F1xx_HAL_Driver/Src/stm32f1xx_hal_adc_ex.c **** 
 680:Drivers/STM32F1xx_HAL_Driver/Src/stm32f1xx_hal_adc_ex.c ****   /* Check the parameters */
 681:Drivers/STM32F1xx_HAL_Driver/Src/stm32f1xx_hal_adc_ex.c ****   assert_param(IS_ADC_MULTIMODE_MASTER_INSTANCE(hadc->Instance));
 1115              		.loc 1 681 3 is_stmt 1 view .LVU316
 682:Drivers/STM32F1xx_HAL_Driver/Src/stm32f1xx_hal_adc_ex.c ****   assert_param(IS_FUNCTIONAL_STATE(hadc->Init.ContinuousConvMode));
 1116              		.loc 1 682 3 view .LVU317
 683:Drivers/STM32F1xx_HAL_Driver/Src/stm32f1xx_hal_adc_ex.c ****   
 684:Drivers/STM32F1xx_HAL_Driver/Src/stm32f1xx_hal_adc_ex.c ****   /* Process locked */
 685:Drivers/STM32F1xx_HAL_Driver/Src/stm32f1xx_hal_adc_ex.c ****   __HAL_LOCK(hadc);
 1117              		.loc 1 685 3 view .LVU318
 1118              		.loc 1 685 3 view .LVU319
 1119 0014 94F82410 		ldrb	r1, [r4, #36]	@ zero_extendqisi2
 1120 0018 0129     		cmp	r1, #1
 1121 001a 63D0     		beq	.L115
 1122              		.loc 1 685 3 discriminator 2 view .LVU320
 1123 001c 0123     		movs	r3, #1
 1124 001e 84F82430 		strb	r3, [r4, #36]
 1125              		.loc 1 685 3 discriminator 2 view .LVU321
 686:Drivers/STM32F1xx_HAL_Driver/Src/stm32f1xx_hal_adc_ex.c **** 
 687:Drivers/STM32F1xx_HAL_Driver/Src/stm32f1xx_hal_adc_ex.c ****   /* Set a temporary handle of the ADC slave associated to the ADC master     */
 688:Drivers/STM32F1xx_HAL_Driver/Src/stm32f1xx_hal_adc_ex.c ****   ADC_MULTI_SLAVE(hadc, &tmphadcSlave);
 1126              		.loc 1 688 3 discriminator 2 view .LVU322
 1127 0022 3149     		ldr	r1, .L119
 1128 0024 0091     		str	r1, [sp]
 689:Drivers/STM32F1xx_HAL_Driver/Src/stm32f1xx_hal_adc_ex.c ****   
 690:Drivers/STM32F1xx_HAL_Driver/Src/stm32f1xx_hal_adc_ex.c ****   /* On STM32F1 devices, ADC slave regular group must be configured with      */
 691:Drivers/STM32F1xx_HAL_Driver/Src/stm32f1xx_hal_adc_ex.c ****   /* conversion trigger ADC_SOFTWARE_START.                                   */
 692:Drivers/STM32F1xx_HAL_Driver/Src/stm32f1xx_hal_adc_ex.c ****   /* Note: External trigger of ADC slave must be enabled, it is already done  */
 693:Drivers/STM32F1xx_HAL_Driver/Src/stm32f1xx_hal_adc_ex.c ****   /*       into function "HAL_ADC_Init()".                                    */
 694:Drivers/STM32F1xx_HAL_Driver/Src/stm32f1xx_hal_adc_ex.c ****   if(!ADC_IS_SOFTWARE_START_REGULAR(&tmphadcSlave))  
 1129              		.loc 1 694 3 discriminator 2 view .LVU323
 1130              		.loc 1 694 7 is_stmt 0 discriminator 2 view .LVU324
 1131 0026 8868     		ldr	r0, [r1, #8]
 1132 0028 00F46020 		and	r0, r0, #917504
 1133              		.loc 1 694 5 discriminator 2 view .LVU325
 1134 002c B0F5602F 		cmp	r0, #917504
 1135 0030 0AD0     		beq	.L111
 695:Drivers/STM32F1xx_HAL_Driver/Src/stm32f1xx_hal_adc_ex.c ****   {
 696:Drivers/STM32F1xx_HAL_Driver/Src/stm32f1xx_hal_adc_ex.c ****     /* Update ADC state machine to error */
 697:Drivers/STM32F1xx_HAL_Driver/Src/stm32f1xx_hal_adc_ex.c ****     SET_BIT(hadc->State, HAL_ADC_STATE_ERROR_CONFIG);
 1136              		.loc 1 697 5 is_stmt 1 view .LVU326
 1137 0032 A36A     		ldr	r3, [r4, #40]
 1138 0034 43F02003 		orr	r3, r3, #32
 1139 0038 A362     		str	r3, [r4, #40]
 698:Drivers/STM32F1xx_HAL_Driver/Src/stm32f1xx_hal_adc_ex.c ****     
ARM GAS  C:\Users\wyx12\AppData\Local\Temp\ccMKDd7z.s 			page 35


 699:Drivers/STM32F1xx_HAL_Driver/Src/stm32f1xx_hal_adc_ex.c ****     /* Process unlocked */
 700:Drivers/STM32F1xx_HAL_Driver/Src/stm32f1xx_hal_adc_ex.c ****     __HAL_UNLOCK(hadc);
 1140              		.loc 1 700 5 view .LVU327
 1141              		.loc 1 700 5 view .LVU328
 1142 003a 0023     		movs	r3, #0
 1143 003c 84F82430 		strb	r3, [r4, #36]
 1144              		.loc 1 700 5 view .LVU329
 701:Drivers/STM32F1xx_HAL_Driver/Src/stm32f1xx_hal_adc_ex.c ****     
 702:Drivers/STM32F1xx_HAL_Driver/Src/stm32f1xx_hal_adc_ex.c ****     return HAL_ERROR;
 1145              		.loc 1 702 5 view .LVU330
 1146              		.loc 1 702 12 is_stmt 0 view .LVU331
 1147 0040 0126     		movs	r6, #1
 1148              	.LVL59:
 1149              	.L110:
 703:Drivers/STM32F1xx_HAL_Driver/Src/stm32f1xx_hal_adc_ex.c ****   }
 704:Drivers/STM32F1xx_HAL_Driver/Src/stm32f1xx_hal_adc_ex.c ****   
 705:Drivers/STM32F1xx_HAL_Driver/Src/stm32f1xx_hal_adc_ex.c ****   /* Enable the ADC peripherals: master and slave (in case if not already     */
 706:Drivers/STM32F1xx_HAL_Driver/Src/stm32f1xx_hal_adc_ex.c ****   /* enabled previously)                                                      */
 707:Drivers/STM32F1xx_HAL_Driver/Src/stm32f1xx_hal_adc_ex.c ****   tmp_hal_status = ADC_Enable(hadc);
 708:Drivers/STM32F1xx_HAL_Driver/Src/stm32f1xx_hal_adc_ex.c ****   if (tmp_hal_status == HAL_OK)
 709:Drivers/STM32F1xx_HAL_Driver/Src/stm32f1xx_hal_adc_ex.c ****   {
 710:Drivers/STM32F1xx_HAL_Driver/Src/stm32f1xx_hal_adc_ex.c ****     tmp_hal_status = ADC_Enable(&tmphadcSlave);
 711:Drivers/STM32F1xx_HAL_Driver/Src/stm32f1xx_hal_adc_ex.c ****   }
 712:Drivers/STM32F1xx_HAL_Driver/Src/stm32f1xx_hal_adc_ex.c ****   
 713:Drivers/STM32F1xx_HAL_Driver/Src/stm32f1xx_hal_adc_ex.c ****   /* Start conversion if all ADCs of multimode are effectively enabled */
 714:Drivers/STM32F1xx_HAL_Driver/Src/stm32f1xx_hal_adc_ex.c ****   if (tmp_hal_status == HAL_OK)
 715:Drivers/STM32F1xx_HAL_Driver/Src/stm32f1xx_hal_adc_ex.c ****   {
 716:Drivers/STM32F1xx_HAL_Driver/Src/stm32f1xx_hal_adc_ex.c ****     /* Set ADC state (ADC master)                                             */
 717:Drivers/STM32F1xx_HAL_Driver/Src/stm32f1xx_hal_adc_ex.c ****     /* - Clear state bitfield related to regular group conversion results     */
 718:Drivers/STM32F1xx_HAL_Driver/Src/stm32f1xx_hal_adc_ex.c ****     /* - Set state bitfield related to regular operation                      */
 719:Drivers/STM32F1xx_HAL_Driver/Src/stm32f1xx_hal_adc_ex.c ****     ADC_STATE_CLR_SET(hadc->State,
 720:Drivers/STM32F1xx_HAL_Driver/Src/stm32f1xx_hal_adc_ex.c ****                       HAL_ADC_STATE_READY | HAL_ADC_STATE_REG_EOC | HAL_ADC_STATE_MULTIMODE_SLAVE,
 721:Drivers/STM32F1xx_HAL_Driver/Src/stm32f1xx_hal_adc_ex.c ****                       HAL_ADC_STATE_REG_BUSY);
 722:Drivers/STM32F1xx_HAL_Driver/Src/stm32f1xx_hal_adc_ex.c ****       
 723:Drivers/STM32F1xx_HAL_Driver/Src/stm32f1xx_hal_adc_ex.c ****     /* If conversions on group regular are also triggering group injected,    */
 724:Drivers/STM32F1xx_HAL_Driver/Src/stm32f1xx_hal_adc_ex.c ****     /* update ADC state.                                                      */
 725:Drivers/STM32F1xx_HAL_Driver/Src/stm32f1xx_hal_adc_ex.c ****     if (READ_BIT(hadc->Instance->CR1, ADC_CR1_JAUTO) != RESET)
 726:Drivers/STM32F1xx_HAL_Driver/Src/stm32f1xx_hal_adc_ex.c ****     {
 727:Drivers/STM32F1xx_HAL_Driver/Src/stm32f1xx_hal_adc_ex.c ****       ADC_STATE_CLR_SET(hadc->State, HAL_ADC_STATE_INJ_EOC, HAL_ADC_STATE_INJ_BUSY);  
 728:Drivers/STM32F1xx_HAL_Driver/Src/stm32f1xx_hal_adc_ex.c ****     }
 729:Drivers/STM32F1xx_HAL_Driver/Src/stm32f1xx_hal_adc_ex.c ****     
 730:Drivers/STM32F1xx_HAL_Driver/Src/stm32f1xx_hal_adc_ex.c ****     /* Process unlocked */
 731:Drivers/STM32F1xx_HAL_Driver/Src/stm32f1xx_hal_adc_ex.c ****     /* Unlock before starting ADC conversions: in case of potential           */
 732:Drivers/STM32F1xx_HAL_Driver/Src/stm32f1xx_hal_adc_ex.c ****     /* interruption, to let the process to ADC IRQ Handler.                   */
 733:Drivers/STM32F1xx_HAL_Driver/Src/stm32f1xx_hal_adc_ex.c ****     __HAL_UNLOCK(hadc);
 734:Drivers/STM32F1xx_HAL_Driver/Src/stm32f1xx_hal_adc_ex.c ****     
 735:Drivers/STM32F1xx_HAL_Driver/Src/stm32f1xx_hal_adc_ex.c ****     /* Set ADC error code to none */
 736:Drivers/STM32F1xx_HAL_Driver/Src/stm32f1xx_hal_adc_ex.c ****     ADC_CLEAR_ERRORCODE(hadc);
 737:Drivers/STM32F1xx_HAL_Driver/Src/stm32f1xx_hal_adc_ex.c ****     
 738:Drivers/STM32F1xx_HAL_Driver/Src/stm32f1xx_hal_adc_ex.c ****     
 739:Drivers/STM32F1xx_HAL_Driver/Src/stm32f1xx_hal_adc_ex.c ****     /* Set the DMA transfer complete callback */
 740:Drivers/STM32F1xx_HAL_Driver/Src/stm32f1xx_hal_adc_ex.c ****     hadc->DMA_Handle->XferCpltCallback = ADC_DMAConvCplt;
 741:Drivers/STM32F1xx_HAL_Driver/Src/stm32f1xx_hal_adc_ex.c ****        
 742:Drivers/STM32F1xx_HAL_Driver/Src/stm32f1xx_hal_adc_ex.c ****     /* Set the DMA half transfer complete callback */
 743:Drivers/STM32F1xx_HAL_Driver/Src/stm32f1xx_hal_adc_ex.c ****     hadc->DMA_Handle->XferHalfCpltCallback = ADC_DMAHalfConvCplt;
 744:Drivers/STM32F1xx_HAL_Driver/Src/stm32f1xx_hal_adc_ex.c ****     
 745:Drivers/STM32F1xx_HAL_Driver/Src/stm32f1xx_hal_adc_ex.c ****     /* Set the DMA error callback */
ARM GAS  C:\Users\wyx12\AppData\Local\Temp\ccMKDd7z.s 			page 36


 746:Drivers/STM32F1xx_HAL_Driver/Src/stm32f1xx_hal_adc_ex.c ****     hadc->DMA_Handle->XferErrorCallback = ADC_DMAError;
 747:Drivers/STM32F1xx_HAL_Driver/Src/stm32f1xx_hal_adc_ex.c **** 
 748:Drivers/STM32F1xx_HAL_Driver/Src/stm32f1xx_hal_adc_ex.c ****     
 749:Drivers/STM32F1xx_HAL_Driver/Src/stm32f1xx_hal_adc_ex.c ****     /* Manage ADC and DMA start: ADC overrun interruption, DMA start, ADC     */
 750:Drivers/STM32F1xx_HAL_Driver/Src/stm32f1xx_hal_adc_ex.c ****     /* start (in case of SW start):                                           */
 751:Drivers/STM32F1xx_HAL_Driver/Src/stm32f1xx_hal_adc_ex.c ****     
 752:Drivers/STM32F1xx_HAL_Driver/Src/stm32f1xx_hal_adc_ex.c ****     /* Clear regular group conversion flag and overrun flag */
 753:Drivers/STM32F1xx_HAL_Driver/Src/stm32f1xx_hal_adc_ex.c ****     /* (To ensure of no unknown state from potential previous ADC operations) */
 754:Drivers/STM32F1xx_HAL_Driver/Src/stm32f1xx_hal_adc_ex.c ****     __HAL_ADC_CLEAR_FLAG(hadc, ADC_FLAG_EOC);
 755:Drivers/STM32F1xx_HAL_Driver/Src/stm32f1xx_hal_adc_ex.c ****     
 756:Drivers/STM32F1xx_HAL_Driver/Src/stm32f1xx_hal_adc_ex.c ****     /* Enable ADC DMA mode of ADC master */
 757:Drivers/STM32F1xx_HAL_Driver/Src/stm32f1xx_hal_adc_ex.c ****     SET_BIT(hadc->Instance->CR2, ADC_CR2_DMA);
 758:Drivers/STM32F1xx_HAL_Driver/Src/stm32f1xx_hal_adc_ex.c ****     
 759:Drivers/STM32F1xx_HAL_Driver/Src/stm32f1xx_hal_adc_ex.c ****     /* Start the DMA channel */
 760:Drivers/STM32F1xx_HAL_Driver/Src/stm32f1xx_hal_adc_ex.c ****     HAL_DMA_Start_IT(hadc->DMA_Handle, (uint32_t)&hadc->Instance->DR, (uint32_t)pData, Length);
 761:Drivers/STM32F1xx_HAL_Driver/Src/stm32f1xx_hal_adc_ex.c ****     
 762:Drivers/STM32F1xx_HAL_Driver/Src/stm32f1xx_hal_adc_ex.c ****     /* Start conversion of regular group if software start has been selected. */
 763:Drivers/STM32F1xx_HAL_Driver/Src/stm32f1xx_hal_adc_ex.c ****     /* If external trigger has been selected, conversion will start at next   */
 764:Drivers/STM32F1xx_HAL_Driver/Src/stm32f1xx_hal_adc_ex.c ****     /* trigger event.                                                         */
 765:Drivers/STM32F1xx_HAL_Driver/Src/stm32f1xx_hal_adc_ex.c ****     /* Note: Alternate trigger for single conversion could be to force an     */
 766:Drivers/STM32F1xx_HAL_Driver/Src/stm32f1xx_hal_adc_ex.c ****     /*       additional set of bit ADON "hadc->Instance->CR2 |= ADC_CR2_ADON;"*/
 767:Drivers/STM32F1xx_HAL_Driver/Src/stm32f1xx_hal_adc_ex.c ****     if (ADC_IS_SOFTWARE_START_REGULAR(hadc))
 768:Drivers/STM32F1xx_HAL_Driver/Src/stm32f1xx_hal_adc_ex.c ****     {
 769:Drivers/STM32F1xx_HAL_Driver/Src/stm32f1xx_hal_adc_ex.c ****       /* Start ADC conversion on regular group with SW start */
 770:Drivers/STM32F1xx_HAL_Driver/Src/stm32f1xx_hal_adc_ex.c ****       SET_BIT(hadc->Instance->CR2, (ADC_CR2_SWSTART | ADC_CR2_EXTTRIG));
 771:Drivers/STM32F1xx_HAL_Driver/Src/stm32f1xx_hal_adc_ex.c ****     }
 772:Drivers/STM32F1xx_HAL_Driver/Src/stm32f1xx_hal_adc_ex.c ****     else
 773:Drivers/STM32F1xx_HAL_Driver/Src/stm32f1xx_hal_adc_ex.c ****     {
 774:Drivers/STM32F1xx_HAL_Driver/Src/stm32f1xx_hal_adc_ex.c ****       /* Start ADC conversion on regular group with external trigger */
 775:Drivers/STM32F1xx_HAL_Driver/Src/stm32f1xx_hal_adc_ex.c ****       SET_BIT(hadc->Instance->CR2, ADC_CR2_EXTTRIG);
 776:Drivers/STM32F1xx_HAL_Driver/Src/stm32f1xx_hal_adc_ex.c ****     }
 777:Drivers/STM32F1xx_HAL_Driver/Src/stm32f1xx_hal_adc_ex.c ****   }
 778:Drivers/STM32F1xx_HAL_Driver/Src/stm32f1xx_hal_adc_ex.c ****   else
 779:Drivers/STM32F1xx_HAL_Driver/Src/stm32f1xx_hal_adc_ex.c ****   {
 780:Drivers/STM32F1xx_HAL_Driver/Src/stm32f1xx_hal_adc_ex.c ****     /* Process unlocked */
 781:Drivers/STM32F1xx_HAL_Driver/Src/stm32f1xx_hal_adc_ex.c ****     __HAL_UNLOCK(hadc);
 782:Drivers/STM32F1xx_HAL_Driver/Src/stm32f1xx_hal_adc_ex.c ****   }
 783:Drivers/STM32F1xx_HAL_Driver/Src/stm32f1xx_hal_adc_ex.c ****   
 784:Drivers/STM32F1xx_HAL_Driver/Src/stm32f1xx_hal_adc_ex.c ****   /* Return function status */
 785:Drivers/STM32F1xx_HAL_Driver/Src/stm32f1xx_hal_adc_ex.c ****   return tmp_hal_status;
 786:Drivers/STM32F1xx_HAL_Driver/Src/stm32f1xx_hal_adc_ex.c **** }
 1150              		.loc 1 786 1 view .LVU332
 1151 0042 3046     		mov	r0, r6
 1152 0044 0DB0     		add	sp, sp, #52
 1153              	.LCFI18:
 1154              		.cfi_remember_state
 1155              		.cfi_def_cfa_offset 20
 1156              		@ sp needed
 1157 0046 F0BD     		pop	{r4, r5, r6, r7, pc}
 1158              	.LVL60:
 1159              	.L111:
 1160              	.LCFI19:
 1161              		.cfi_restore_state
 707:Drivers/STM32F1xx_HAL_Driver/Src/stm32f1xx_hal_adc_ex.c ****   if (tmp_hal_status == HAL_OK)
 1162              		.loc 1 707 3 is_stmt 1 view .LVU333
 707:Drivers/STM32F1xx_HAL_Driver/Src/stm32f1xx_hal_adc_ex.c ****   if (tmp_hal_status == HAL_OK)
 1163              		.loc 1 707 20 is_stmt 0 view .LVU334
ARM GAS  C:\Users\wyx12\AppData\Local\Temp\ccMKDd7z.s 			page 37


 1164 0048 2046     		mov	r0, r4
 1165 004a FFF7FEFF 		bl	ADC_Enable
 1166              	.LVL61:
 708:Drivers/STM32F1xx_HAL_Driver/Src/stm32f1xx_hal_adc_ex.c ****   {
 1167              		.loc 1 708 3 is_stmt 1 view .LVU335
 708:Drivers/STM32F1xx_HAL_Driver/Src/stm32f1xx_hal_adc_ex.c ****   {
 1168              		.loc 1 708 6 is_stmt 0 view .LVU336
 1169 004e 0646     		mov	r6, r0
 1170 0050 18B1     		cbz	r0, .L117
 1171              	.L112:
 1172              	.LVL62:
 781:Drivers/STM32F1xx_HAL_Driver/Src/stm32f1xx_hal_adc_ex.c ****   }
 1173              		.loc 1 781 5 is_stmt 1 view .LVU337
 781:Drivers/STM32F1xx_HAL_Driver/Src/stm32f1xx_hal_adc_ex.c ****   }
 1174              		.loc 1 781 5 view .LVU338
 1175 0052 0023     		movs	r3, #0
 1176 0054 84F82430 		strb	r3, [r4, #36]
 1177 0058 F3E7     		b	.L110
 1178              	.LVL63:
 1179              	.L117:
 710:Drivers/STM32F1xx_HAL_Driver/Src/stm32f1xx_hal_adc_ex.c ****   }
 1180              		.loc 1 710 5 view .LVU339
 710:Drivers/STM32F1xx_HAL_Driver/Src/stm32f1xx_hal_adc_ex.c ****   }
 1181              		.loc 1 710 22 is_stmt 0 view .LVU340
 1182 005a 6846     		mov	r0, sp
 1183              	.LVL64:
 710:Drivers/STM32F1xx_HAL_Driver/Src/stm32f1xx_hal_adc_ex.c ****   }
 1184              		.loc 1 710 22 view .LVU341
 1185 005c FFF7FEFF 		bl	ADC_Enable
 1186              	.LVL65:
 714:Drivers/STM32F1xx_HAL_Driver/Src/stm32f1xx_hal_adc_ex.c ****   {
 1187              		.loc 1 714 3 is_stmt 1 view .LVU342
 714:Drivers/STM32F1xx_HAL_Driver/Src/stm32f1xx_hal_adc_ex.c ****   {
 1188              		.loc 1 714 6 is_stmt 0 view .LVU343
 1189 0060 0646     		mov	r6, r0
 1190 0062 0028     		cmp	r0, #0
 1191 0064 F5D1     		bne	.L112
 719:Drivers/STM32F1xx_HAL_Driver/Src/stm32f1xx_hal_adc_ex.c ****                       HAL_ADC_STATE_READY | HAL_ADC_STATE_REG_EOC | HAL_ADC_STATE_MULTIMODE_SLAVE,
 1192              		.loc 1 719 5 is_stmt 1 view .LVU344
 1193 0066 A26A     		ldr	r2, [r4, #40]
 1194 0068 204B     		ldr	r3, .L119+4
 1195 006a 1340     		ands	r3, r3, r2
 1196 006c 43F48073 		orr	r3, r3, #256
 1197 0070 A362     		str	r3, [r4, #40]
 725:Drivers/STM32F1xx_HAL_Driver/Src/stm32f1xx_hal_adc_ex.c ****     {
 1198              		.loc 1 725 5 view .LVU345
 725:Drivers/STM32F1xx_HAL_Driver/Src/stm32f1xx_hal_adc_ex.c ****     {
 1199              		.loc 1 725 9 is_stmt 0 view .LVU346
 1200 0072 2368     		ldr	r3, [r4]
 1201 0074 5B68     		ldr	r3, [r3, #4]
 725:Drivers/STM32F1xx_HAL_Driver/Src/stm32f1xx_hal_adc_ex.c ****     {
 1202              		.loc 1 725 8 view .LVU347
 1203 0076 13F4806F 		tst	r3, #1024
 1204 007a 05D0     		beq	.L113
 727:Drivers/STM32F1xx_HAL_Driver/Src/stm32f1xx_hal_adc_ex.c ****     }
 1205              		.loc 1 727 7 is_stmt 1 view .LVU348
 1206 007c A36A     		ldr	r3, [r4, #40]
ARM GAS  C:\Users\wyx12\AppData\Local\Temp\ccMKDd7z.s 			page 38


 1207 007e 23F44053 		bic	r3, r3, #12288
 1208 0082 43F48053 		orr	r3, r3, #4096
 1209 0086 A362     		str	r3, [r4, #40]
 1210              	.L113:
 733:Drivers/STM32F1xx_HAL_Driver/Src/stm32f1xx_hal_adc_ex.c ****     
 1211              		.loc 1 733 5 view .LVU349
 733:Drivers/STM32F1xx_HAL_Driver/Src/stm32f1xx_hal_adc_ex.c ****     
 1212              		.loc 1 733 5 view .LVU350
 1213 0088 0023     		movs	r3, #0
 1214 008a 84F82430 		strb	r3, [r4, #36]
 733:Drivers/STM32F1xx_HAL_Driver/Src/stm32f1xx_hal_adc_ex.c ****     
 1215              		.loc 1 733 5 view .LVU351
 736:Drivers/STM32F1xx_HAL_Driver/Src/stm32f1xx_hal_adc_ex.c ****     
 1216              		.loc 1 736 5 view .LVU352
 1217 008e E362     		str	r3, [r4, #44]
 740:Drivers/STM32F1xx_HAL_Driver/Src/stm32f1xx_hal_adc_ex.c ****        
 1218              		.loc 1 740 5 view .LVU353
 740:Drivers/STM32F1xx_HAL_Driver/Src/stm32f1xx_hal_adc_ex.c ****        
 1219              		.loc 1 740 9 is_stmt 0 view .LVU354
 1220 0090 236A     		ldr	r3, [r4, #32]
 740:Drivers/STM32F1xx_HAL_Driver/Src/stm32f1xx_hal_adc_ex.c ****        
 1221              		.loc 1 740 40 view .LVU355
 1222 0092 174A     		ldr	r2, .L119+8
 1223 0094 9A62     		str	r2, [r3, #40]
 743:Drivers/STM32F1xx_HAL_Driver/Src/stm32f1xx_hal_adc_ex.c ****     
 1224              		.loc 1 743 5 is_stmt 1 view .LVU356
 743:Drivers/STM32F1xx_HAL_Driver/Src/stm32f1xx_hal_adc_ex.c ****     
 1225              		.loc 1 743 9 is_stmt 0 view .LVU357
 1226 0096 236A     		ldr	r3, [r4, #32]
 743:Drivers/STM32F1xx_HAL_Driver/Src/stm32f1xx_hal_adc_ex.c ****     
 1227              		.loc 1 743 44 view .LVU358
 1228 0098 164A     		ldr	r2, .L119+12
 1229 009a DA62     		str	r2, [r3, #44]
 746:Drivers/STM32F1xx_HAL_Driver/Src/stm32f1xx_hal_adc_ex.c **** 
 1230              		.loc 1 746 5 is_stmt 1 view .LVU359
 746:Drivers/STM32F1xx_HAL_Driver/Src/stm32f1xx_hal_adc_ex.c **** 
 1231              		.loc 1 746 9 is_stmt 0 view .LVU360
 1232 009c 236A     		ldr	r3, [r4, #32]
 746:Drivers/STM32F1xx_HAL_Driver/Src/stm32f1xx_hal_adc_ex.c **** 
 1233              		.loc 1 746 41 view .LVU361
 1234 009e 164A     		ldr	r2, .L119+16
 1235 00a0 1A63     		str	r2, [r3, #48]
 754:Drivers/STM32F1xx_HAL_Driver/Src/stm32f1xx_hal_adc_ex.c ****     
 1236              		.loc 1 754 5 is_stmt 1 view .LVU362
 1237 00a2 2368     		ldr	r3, [r4]
 1238 00a4 6FF00202 		mvn	r2, #2
 1239 00a8 1A60     		str	r2, [r3]
 757:Drivers/STM32F1xx_HAL_Driver/Src/stm32f1xx_hal_adc_ex.c ****     
 1240              		.loc 1 757 5 view .LVU363
 1241 00aa 2268     		ldr	r2, [r4]
 1242 00ac 9368     		ldr	r3, [r2, #8]
 1243 00ae 43F48073 		orr	r3, r3, #256
 1244 00b2 9360     		str	r3, [r2, #8]
 760:Drivers/STM32F1xx_HAL_Driver/Src/stm32f1xx_hal_adc_ex.c ****     
 1245              		.loc 1 760 5 view .LVU364
 760:Drivers/STM32F1xx_HAL_Driver/Src/stm32f1xx_hal_adc_ex.c ****     
 1246              		.loc 1 760 55 is_stmt 0 view .LVU365
ARM GAS  C:\Users\wyx12\AppData\Local\Temp\ccMKDd7z.s 			page 39


 1247 00b4 2168     		ldr	r1, [r4]
 760:Drivers/STM32F1xx_HAL_Driver/Src/stm32f1xx_hal_adc_ex.c ****     
 1248              		.loc 1 760 5 view .LVU366
 1249 00b6 3B46     		mov	r3, r7
 1250 00b8 2A46     		mov	r2, r5
 1251 00ba 4C31     		adds	r1, r1, #76
 1252 00bc 206A     		ldr	r0, [r4, #32]
 1253              	.LVL66:
 760:Drivers/STM32F1xx_HAL_Driver/Src/stm32f1xx_hal_adc_ex.c ****     
 1254              		.loc 1 760 5 view .LVU367
 1255 00be FFF7FEFF 		bl	HAL_DMA_Start_IT
 1256              	.LVL67:
 767:Drivers/STM32F1xx_HAL_Driver/Src/stm32f1xx_hal_adc_ex.c ****     {
 1257              		.loc 1 767 5 is_stmt 1 view .LVU368
 767:Drivers/STM32F1xx_HAL_Driver/Src/stm32f1xx_hal_adc_ex.c ****     {
 1258              		.loc 1 767 9 is_stmt 0 view .LVU369
 1259 00c2 2368     		ldr	r3, [r4]
 1260 00c4 9A68     		ldr	r2, [r3, #8]
 1261 00c6 02F46022 		and	r2, r2, #917504
 767:Drivers/STM32F1xx_HAL_Driver/Src/stm32f1xx_hal_adc_ex.c ****     {
 1262              		.loc 1 767 8 view .LVU370
 1263 00ca B2F5602F 		cmp	r2, #917504
 1264 00ce 04D0     		beq	.L118
 775:Drivers/STM32F1xx_HAL_Driver/Src/stm32f1xx_hal_adc_ex.c ****     }
 1265              		.loc 1 775 7 is_stmt 1 view .LVU371
 1266 00d0 9A68     		ldr	r2, [r3, #8]
 1267 00d2 42F48012 		orr	r2, r2, #1048576
 1268 00d6 9A60     		str	r2, [r3, #8]
 1269 00d8 B3E7     		b	.L110
 1270              	.L118:
 770:Drivers/STM32F1xx_HAL_Driver/Src/stm32f1xx_hal_adc_ex.c ****     }
 1271              		.loc 1 770 7 view .LVU372
 1272 00da 9A68     		ldr	r2, [r3, #8]
 1273 00dc 42F4A002 		orr	r2, r2, #5242880
 1274 00e0 9A60     		str	r2, [r3, #8]
 1275 00e2 AEE7     		b	.L110
 1276              	.LVL68:
 1277              	.L115:
 685:Drivers/STM32F1xx_HAL_Driver/Src/stm32f1xx_hal_adc_ex.c **** 
 1278              		.loc 1 685 3 is_stmt 0 view .LVU373
 1279 00e4 0226     		movs	r6, #2
 1280 00e6 ACE7     		b	.L110
 1281              	.L120:
 1282              		.align	2
 1283              	.L119:
 1284 00e8 00280140 		.word	1073817600
 1285 00ec FEFCEFFF 		.word	-1049346
 1286 00f0 00000000 		.word	ADC_DMAConvCplt
 1287 00f4 00000000 		.word	ADC_DMAHalfConvCplt
 1288 00f8 00000000 		.word	ADC_DMAError
 1289              		.cfi_endproc
 1290              	.LFE71:
 1292              		.section	.text.HAL_ADCEx_MultiModeStop_DMA,"ax",%progbits
 1293              		.align	1
 1294              		.global	HAL_ADCEx_MultiModeStop_DMA
 1295              		.syntax unified
 1296              		.thumb
ARM GAS  C:\Users\wyx12\AppData\Local\Temp\ccMKDd7z.s 			page 40


 1297              		.thumb_func
 1299              	HAL_ADCEx_MultiModeStop_DMA:
 1300              	.LVL69:
 1301              	.LFB72:
 787:Drivers/STM32F1xx_HAL_Driver/Src/stm32f1xx_hal_adc_ex.c **** 
 788:Drivers/STM32F1xx_HAL_Driver/Src/stm32f1xx_hal_adc_ex.c **** /**
 789:Drivers/STM32F1xx_HAL_Driver/Src/stm32f1xx_hal_adc_ex.c ****   * @brief  Stop ADC conversion of regular group (and injected channels in 
 790:Drivers/STM32F1xx_HAL_Driver/Src/stm32f1xx_hal_adc_ex.c ****   *         case of auto_injection mode), disable ADC DMA transfer, disable 
 791:Drivers/STM32F1xx_HAL_Driver/Src/stm32f1xx_hal_adc_ex.c ****   *         ADC peripheral.
 792:Drivers/STM32F1xx_HAL_Driver/Src/stm32f1xx_hal_adc_ex.c ****   * @note   Multimode is kept enabled after this function. To disable multimode 
 793:Drivers/STM32F1xx_HAL_Driver/Src/stm32f1xx_hal_adc_ex.c ****   *         (set with HAL_ADCEx_MultiModeConfigChannel(), ADC must be 
 794:Drivers/STM32F1xx_HAL_Driver/Src/stm32f1xx_hal_adc_ex.c ****   *         reinitialized using HAL_ADC_Init() or HAL_ADC_ReInit().
 795:Drivers/STM32F1xx_HAL_Driver/Src/stm32f1xx_hal_adc_ex.c ****   * @note   In case of DMA configured in circular mode, function 
 796:Drivers/STM32F1xx_HAL_Driver/Src/stm32f1xx_hal_adc_ex.c ****   *         HAL_ADC_Stop_DMA must be called after this function with handle of
 797:Drivers/STM32F1xx_HAL_Driver/Src/stm32f1xx_hal_adc_ex.c ****   *         ADC slave, to properly disable the DMA channel.
 798:Drivers/STM32F1xx_HAL_Driver/Src/stm32f1xx_hal_adc_ex.c ****   * @param  hadc: ADC handle of ADC master (handle of ADC slave must not be used)
 799:Drivers/STM32F1xx_HAL_Driver/Src/stm32f1xx_hal_adc_ex.c ****   * @retval None
 800:Drivers/STM32F1xx_HAL_Driver/Src/stm32f1xx_hal_adc_ex.c ****   */
 801:Drivers/STM32F1xx_HAL_Driver/Src/stm32f1xx_hal_adc_ex.c **** HAL_StatusTypeDef HAL_ADCEx_MultiModeStop_DMA(ADC_HandleTypeDef* hadc)
 802:Drivers/STM32F1xx_HAL_Driver/Src/stm32f1xx_hal_adc_ex.c **** {
 1302              		.loc 1 802 1 is_stmt 1 view -0
 1303              		.cfi_startproc
 1304              		@ args = 0, pretend = 0, frame = 48
 1305              		@ frame_needed = 0, uses_anonymous_args = 0
 1306              		.loc 1 802 1 is_stmt 0 view .LVU375
 1307 0000 10B5     		push	{r4, lr}
 1308              	.LCFI20:
 1309              		.cfi_def_cfa_offset 8
 1310              		.cfi_offset 4, -8
 1311              		.cfi_offset 14, -4
 1312 0002 8CB0     		sub	sp, sp, #48
 1313              	.LCFI21:
 1314              		.cfi_def_cfa_offset 56
 1315 0004 0446     		mov	r4, r0
 803:Drivers/STM32F1xx_HAL_Driver/Src/stm32f1xx_hal_adc_ex.c ****   HAL_StatusTypeDef tmp_hal_status = HAL_OK;
 1316              		.loc 1 803 3 is_stmt 1 view .LVU376
 1317              	.LVL70:
 804:Drivers/STM32F1xx_HAL_Driver/Src/stm32f1xx_hal_adc_ex.c ****   ADC_HandleTypeDef tmphadcSlave={0};
 1318              		.loc 1 804 3 view .LVU377
 1319              		.loc 1 804 21 is_stmt 0 view .LVU378
 1320 0006 3022     		movs	r2, #48
 1321 0008 0021     		movs	r1, #0
 1322 000a 6846     		mov	r0, sp
 1323              	.LVL71:
 1324              		.loc 1 804 21 view .LVU379
 1325 000c FFF7FEFF 		bl	memset
 1326              	.LVL72:
 805:Drivers/STM32F1xx_HAL_Driver/Src/stm32f1xx_hal_adc_ex.c ****   
 806:Drivers/STM32F1xx_HAL_Driver/Src/stm32f1xx_hal_adc_ex.c ****   /* Check the parameters */
 807:Drivers/STM32F1xx_HAL_Driver/Src/stm32f1xx_hal_adc_ex.c ****   assert_param(IS_ADC_MULTIMODE_MASTER_INSTANCE(hadc->Instance));
 1327              		.loc 1 807 3 is_stmt 1 view .LVU380
 808:Drivers/STM32F1xx_HAL_Driver/Src/stm32f1xx_hal_adc_ex.c ****   
 809:Drivers/STM32F1xx_HAL_Driver/Src/stm32f1xx_hal_adc_ex.c ****   /* Process locked */
 810:Drivers/STM32F1xx_HAL_Driver/Src/stm32f1xx_hal_adc_ex.c ****   __HAL_LOCK(hadc);
 1328              		.loc 1 810 3 view .LVU381
 1329              		.loc 1 810 3 view .LVU382
 1330 0010 94F82430 		ldrb	r3, [r4, #36]	@ zero_extendqisi2
ARM GAS  C:\Users\wyx12\AppData\Local\Temp\ccMKDd7z.s 			page 41


 1331 0014 012B     		cmp	r3, #1
 1332 0016 30D0     		beq	.L125
 1333              		.loc 1 810 3 discriminator 2 view .LVU383
 1334 0018 0123     		movs	r3, #1
 1335 001a 84F82430 		strb	r3, [r4, #36]
 1336              		.loc 1 810 3 discriminator 2 view .LVU384
 811:Drivers/STM32F1xx_HAL_Driver/Src/stm32f1xx_hal_adc_ex.c **** 
 812:Drivers/STM32F1xx_HAL_Driver/Src/stm32f1xx_hal_adc_ex.c ****   /* Stop potential conversion on going, on regular and injected groups */
 813:Drivers/STM32F1xx_HAL_Driver/Src/stm32f1xx_hal_adc_ex.c ****   /* Disable ADC master peripheral */
 814:Drivers/STM32F1xx_HAL_Driver/Src/stm32f1xx_hal_adc_ex.c ****   tmp_hal_status = ADC_ConversionStop_Disable(hadc);
 1337              		.loc 1 814 3 discriminator 2 view .LVU385
 1338              		.loc 1 814 20 is_stmt 0 discriminator 2 view .LVU386
 1339 001e 2046     		mov	r0, r4
 1340 0020 FFF7FEFF 		bl	ADC_ConversionStop_Disable
 1341              	.LVL73:
 815:Drivers/STM32F1xx_HAL_Driver/Src/stm32f1xx_hal_adc_ex.c ****   
 816:Drivers/STM32F1xx_HAL_Driver/Src/stm32f1xx_hal_adc_ex.c ****   /* Check if ADC is effectively disabled */
 817:Drivers/STM32F1xx_HAL_Driver/Src/stm32f1xx_hal_adc_ex.c ****   if(tmp_hal_status == HAL_OK)
 1342              		.loc 1 817 3 is_stmt 1 discriminator 2 view .LVU387
 1343              		.loc 1 817 5 is_stmt 0 discriminator 2 view .LVU388
 1344 0024 20B1     		cbz	r0, .L127
 1345              	.L123:
 818:Drivers/STM32F1xx_HAL_Driver/Src/stm32f1xx_hal_adc_ex.c ****   {
 819:Drivers/STM32F1xx_HAL_Driver/Src/stm32f1xx_hal_adc_ex.c ****     /* Set a temporary handle of the ADC slave associated to the ADC master   */
 820:Drivers/STM32F1xx_HAL_Driver/Src/stm32f1xx_hal_adc_ex.c ****     ADC_MULTI_SLAVE(hadc, &tmphadcSlave);
 821:Drivers/STM32F1xx_HAL_Driver/Src/stm32f1xx_hal_adc_ex.c **** 
 822:Drivers/STM32F1xx_HAL_Driver/Src/stm32f1xx_hal_adc_ex.c ****     /* Disable ADC slave peripheral */
 823:Drivers/STM32F1xx_HAL_Driver/Src/stm32f1xx_hal_adc_ex.c ****     tmp_hal_status = ADC_ConversionStop_Disable(&tmphadcSlave);
 824:Drivers/STM32F1xx_HAL_Driver/Src/stm32f1xx_hal_adc_ex.c **** 
 825:Drivers/STM32F1xx_HAL_Driver/Src/stm32f1xx_hal_adc_ex.c ****     /* Check if ADC is effectively disabled */
 826:Drivers/STM32F1xx_HAL_Driver/Src/stm32f1xx_hal_adc_ex.c ****     if(tmp_hal_status != HAL_OK)
 827:Drivers/STM32F1xx_HAL_Driver/Src/stm32f1xx_hal_adc_ex.c ****     {
 828:Drivers/STM32F1xx_HAL_Driver/Src/stm32f1xx_hal_adc_ex.c ****       /* Update ADC state machine to error */
 829:Drivers/STM32F1xx_HAL_Driver/Src/stm32f1xx_hal_adc_ex.c ****       SET_BIT(hadc->State, HAL_ADC_STATE_ERROR_INTERNAL);
 830:Drivers/STM32F1xx_HAL_Driver/Src/stm32f1xx_hal_adc_ex.c **** 
 831:Drivers/STM32F1xx_HAL_Driver/Src/stm32f1xx_hal_adc_ex.c ****       /* Process unlocked */
 832:Drivers/STM32F1xx_HAL_Driver/Src/stm32f1xx_hal_adc_ex.c ****       __HAL_UNLOCK(hadc);
 833:Drivers/STM32F1xx_HAL_Driver/Src/stm32f1xx_hal_adc_ex.c **** 
 834:Drivers/STM32F1xx_HAL_Driver/Src/stm32f1xx_hal_adc_ex.c ****       return HAL_ERROR;
 835:Drivers/STM32F1xx_HAL_Driver/Src/stm32f1xx_hal_adc_ex.c ****     }
 836:Drivers/STM32F1xx_HAL_Driver/Src/stm32f1xx_hal_adc_ex.c **** 
 837:Drivers/STM32F1xx_HAL_Driver/Src/stm32f1xx_hal_adc_ex.c ****     /* Disable ADC DMA mode */
 838:Drivers/STM32F1xx_HAL_Driver/Src/stm32f1xx_hal_adc_ex.c ****     CLEAR_BIT(hadc->Instance->CR2, ADC_CR2_DMA);
 839:Drivers/STM32F1xx_HAL_Driver/Src/stm32f1xx_hal_adc_ex.c ****     
 840:Drivers/STM32F1xx_HAL_Driver/Src/stm32f1xx_hal_adc_ex.c ****     /* Reset configuration of ADC DMA continuous request for dual mode */
 841:Drivers/STM32F1xx_HAL_Driver/Src/stm32f1xx_hal_adc_ex.c ****     CLEAR_BIT(hadc->Instance->CR1, ADC_CR1_DUALMOD);
 842:Drivers/STM32F1xx_HAL_Driver/Src/stm32f1xx_hal_adc_ex.c ****         
 843:Drivers/STM32F1xx_HAL_Driver/Src/stm32f1xx_hal_adc_ex.c ****     /* Disable the DMA channel (in case of DMA in circular mode or stop while */
 844:Drivers/STM32F1xx_HAL_Driver/Src/stm32f1xx_hal_adc_ex.c ****     /* while DMA transfer is on going)                                        */
 845:Drivers/STM32F1xx_HAL_Driver/Src/stm32f1xx_hal_adc_ex.c ****     tmp_hal_status = HAL_DMA_Abort(hadc->DMA_Handle);
 846:Drivers/STM32F1xx_HAL_Driver/Src/stm32f1xx_hal_adc_ex.c **** 
 847:Drivers/STM32F1xx_HAL_Driver/Src/stm32f1xx_hal_adc_ex.c ****     /* Change ADC state (ADC master) */
 848:Drivers/STM32F1xx_HAL_Driver/Src/stm32f1xx_hal_adc_ex.c ****     ADC_STATE_CLR_SET(hadc->State,
 849:Drivers/STM32F1xx_HAL_Driver/Src/stm32f1xx_hal_adc_ex.c ****                       HAL_ADC_STATE_REG_BUSY | HAL_ADC_STATE_INJ_BUSY,
 850:Drivers/STM32F1xx_HAL_Driver/Src/stm32f1xx_hal_adc_ex.c ****                       HAL_ADC_STATE_READY);
 851:Drivers/STM32F1xx_HAL_Driver/Src/stm32f1xx_hal_adc_ex.c ****   }
 852:Drivers/STM32F1xx_HAL_Driver/Src/stm32f1xx_hal_adc_ex.c ****   
ARM GAS  C:\Users\wyx12\AppData\Local\Temp\ccMKDd7z.s 			page 42


 853:Drivers/STM32F1xx_HAL_Driver/Src/stm32f1xx_hal_adc_ex.c ****   /* Process unlocked */
 854:Drivers/STM32F1xx_HAL_Driver/Src/stm32f1xx_hal_adc_ex.c ****   __HAL_UNLOCK(hadc);
 1346              		.loc 1 854 3 is_stmt 1 view .LVU389
 1347              		.loc 1 854 3 view .LVU390
 1348 0026 0023     		movs	r3, #0
 1349 0028 84F82430 		strb	r3, [r4, #36]
 1350              		.loc 1 854 3 view .LVU391
 855:Drivers/STM32F1xx_HAL_Driver/Src/stm32f1xx_hal_adc_ex.c ****   
 856:Drivers/STM32F1xx_HAL_Driver/Src/stm32f1xx_hal_adc_ex.c ****   /* Return function status */
 857:Drivers/STM32F1xx_HAL_Driver/Src/stm32f1xx_hal_adc_ex.c ****   return tmp_hal_status;
 1351              		.loc 1 857 3 view .LVU392
 1352              	.LVL74:
 1353              	.L122:
 858:Drivers/STM32F1xx_HAL_Driver/Src/stm32f1xx_hal_adc_ex.c **** }
 1354              		.loc 1 858 1 is_stmt 0 view .LVU393
 1355 002c 0CB0     		add	sp, sp, #48
 1356              	.LCFI22:
 1357              		.cfi_remember_state
 1358              		.cfi_def_cfa_offset 8
 1359              		@ sp needed
 1360 002e 10BD     		pop	{r4, pc}
 1361              	.LVL75:
 1362              	.L127:
 1363              	.LCFI23:
 1364              		.cfi_restore_state
 820:Drivers/STM32F1xx_HAL_Driver/Src/stm32f1xx_hal_adc_ex.c **** 
 1365              		.loc 1 820 5 is_stmt 1 view .LVU394
 1366 0030 134B     		ldr	r3, .L128
 1367 0032 0093     		str	r3, [sp]
 823:Drivers/STM32F1xx_HAL_Driver/Src/stm32f1xx_hal_adc_ex.c **** 
 1368              		.loc 1 823 5 view .LVU395
 823:Drivers/STM32F1xx_HAL_Driver/Src/stm32f1xx_hal_adc_ex.c **** 
 1369              		.loc 1 823 22 is_stmt 0 view .LVU396
 1370 0034 6846     		mov	r0, sp
 1371              	.LVL76:
 823:Drivers/STM32F1xx_HAL_Driver/Src/stm32f1xx_hal_adc_ex.c **** 
 1372              		.loc 1 823 22 view .LVU397
 1373 0036 FFF7FEFF 		bl	ADC_ConversionStop_Disable
 1374              	.LVL77:
 826:Drivers/STM32F1xx_HAL_Driver/Src/stm32f1xx_hal_adc_ex.c ****     {
 1375              		.loc 1 826 5 is_stmt 1 view .LVU398
 826:Drivers/STM32F1xx_HAL_Driver/Src/stm32f1xx_hal_adc_ex.c ****     {
 1376              		.loc 1 826 7 is_stmt 0 view .LVU399
 1377 003a 40B1     		cbz	r0, .L124
 829:Drivers/STM32F1xx_HAL_Driver/Src/stm32f1xx_hal_adc_ex.c **** 
 1378              		.loc 1 829 7 is_stmt 1 view .LVU400
 1379 003c A36A     		ldr	r3, [r4, #40]
 1380 003e 43F01003 		orr	r3, r3, #16
 1381 0042 A362     		str	r3, [r4, #40]
 832:Drivers/STM32F1xx_HAL_Driver/Src/stm32f1xx_hal_adc_ex.c **** 
 1382              		.loc 1 832 7 view .LVU401
 832:Drivers/STM32F1xx_HAL_Driver/Src/stm32f1xx_hal_adc_ex.c **** 
 1383              		.loc 1 832 7 view .LVU402
 1384 0044 0023     		movs	r3, #0
 1385 0046 84F82430 		strb	r3, [r4, #36]
 832:Drivers/STM32F1xx_HAL_Driver/Src/stm32f1xx_hal_adc_ex.c **** 
 1386              		.loc 1 832 7 view .LVU403
ARM GAS  C:\Users\wyx12\AppData\Local\Temp\ccMKDd7z.s 			page 43


 834:Drivers/STM32F1xx_HAL_Driver/Src/stm32f1xx_hal_adc_ex.c ****     }
 1387              		.loc 1 834 7 view .LVU404
 834:Drivers/STM32F1xx_HAL_Driver/Src/stm32f1xx_hal_adc_ex.c ****     }
 1388              		.loc 1 834 14 is_stmt 0 view .LVU405
 1389 004a 0120     		movs	r0, #1
 1390              	.LVL78:
 834:Drivers/STM32F1xx_HAL_Driver/Src/stm32f1xx_hal_adc_ex.c ****     }
 1391              		.loc 1 834 14 view .LVU406
 1392 004c EEE7     		b	.L122
 1393              	.LVL79:
 1394              	.L124:
 838:Drivers/STM32F1xx_HAL_Driver/Src/stm32f1xx_hal_adc_ex.c ****     
 1395              		.loc 1 838 5 is_stmt 1 view .LVU407
 1396 004e 2268     		ldr	r2, [r4]
 1397 0050 9368     		ldr	r3, [r2, #8]
 1398 0052 23F48073 		bic	r3, r3, #256
 1399 0056 9360     		str	r3, [r2, #8]
 841:Drivers/STM32F1xx_HAL_Driver/Src/stm32f1xx_hal_adc_ex.c ****         
 1400              		.loc 1 841 5 view .LVU408
 1401 0058 2268     		ldr	r2, [r4]
 1402 005a 5368     		ldr	r3, [r2, #4]
 1403 005c 23F47023 		bic	r3, r3, #983040
 1404 0060 5360     		str	r3, [r2, #4]
 845:Drivers/STM32F1xx_HAL_Driver/Src/stm32f1xx_hal_adc_ex.c **** 
 1405              		.loc 1 845 5 view .LVU409
 845:Drivers/STM32F1xx_HAL_Driver/Src/stm32f1xx_hal_adc_ex.c **** 
 1406              		.loc 1 845 22 is_stmt 0 view .LVU410
 1407 0062 206A     		ldr	r0, [r4, #32]
 1408              	.LVL80:
 845:Drivers/STM32F1xx_HAL_Driver/Src/stm32f1xx_hal_adc_ex.c **** 
 1409              		.loc 1 845 22 view .LVU411
 1410 0064 FFF7FEFF 		bl	HAL_DMA_Abort
 1411              	.LVL81:
 848:Drivers/STM32F1xx_HAL_Driver/Src/stm32f1xx_hal_adc_ex.c ****                       HAL_ADC_STATE_REG_BUSY | HAL_ADC_STATE_INJ_BUSY,
 1412              		.loc 1 848 5 is_stmt 1 view .LVU412
 1413 0068 A36A     		ldr	r3, [r4, #40]
 1414 006a 23F48853 		bic	r3, r3, #4352
 1415 006e 23F00103 		bic	r3, r3, #1
 1416 0072 43F00103 		orr	r3, r3, #1
 1417 0076 A362     		str	r3, [r4, #40]
 1418 0078 D5E7     		b	.L123
 1419              	.LVL82:
 1420              	.L125:
 810:Drivers/STM32F1xx_HAL_Driver/Src/stm32f1xx_hal_adc_ex.c **** 
 1421              		.loc 1 810 3 is_stmt 0 view .LVU413
 1422 007a 0220     		movs	r0, #2
 1423 007c D6E7     		b	.L122
 1424              	.L129:
 1425 007e 00BF     		.align	2
 1426              	.L128:
 1427 0080 00280140 		.word	1073817600
 1428              		.cfi_endproc
 1429              	.LFE72:
 1431              		.section	.text.HAL_ADCEx_InjectedGetValue,"ax",%progbits
 1432              		.align	1
 1433              		.global	HAL_ADCEx_InjectedGetValue
 1434              		.syntax unified
ARM GAS  C:\Users\wyx12\AppData\Local\Temp\ccMKDd7z.s 			page 44


 1435              		.thumb
 1436              		.thumb_func
 1438              	HAL_ADCEx_InjectedGetValue:
 1439              	.LVL83:
 1440              	.LFB73:
 859:Drivers/STM32F1xx_HAL_Driver/Src/stm32f1xx_hal_adc_ex.c **** #endif /* defined STM32F103x6 || defined STM32F103xB || defined STM32F105xC || defined STM32F107xC 
 860:Drivers/STM32F1xx_HAL_Driver/Src/stm32f1xx_hal_adc_ex.c **** 
 861:Drivers/STM32F1xx_HAL_Driver/Src/stm32f1xx_hal_adc_ex.c **** /**
 862:Drivers/STM32F1xx_HAL_Driver/Src/stm32f1xx_hal_adc_ex.c ****   * @brief  Get ADC injected group conversion result.
 863:Drivers/STM32F1xx_HAL_Driver/Src/stm32f1xx_hal_adc_ex.c ****   * @note   Reading register JDRx automatically clears ADC flag JEOC
 864:Drivers/STM32F1xx_HAL_Driver/Src/stm32f1xx_hal_adc_ex.c ****   *         (ADC group injected end of unitary conversion).
 865:Drivers/STM32F1xx_HAL_Driver/Src/stm32f1xx_hal_adc_ex.c ****   * @note   This function does not clear ADC flag JEOS 
 866:Drivers/STM32F1xx_HAL_Driver/Src/stm32f1xx_hal_adc_ex.c ****   *         (ADC group injected end of sequence conversion)
 867:Drivers/STM32F1xx_HAL_Driver/Src/stm32f1xx_hal_adc_ex.c ****   *         Occurrence of flag JEOS rising:
 868:Drivers/STM32F1xx_HAL_Driver/Src/stm32f1xx_hal_adc_ex.c ****   *          - If sequencer is composed of 1 rank, flag JEOS is equivalent
 869:Drivers/STM32F1xx_HAL_Driver/Src/stm32f1xx_hal_adc_ex.c ****   *            to flag JEOC.
 870:Drivers/STM32F1xx_HAL_Driver/Src/stm32f1xx_hal_adc_ex.c ****   *          - If sequencer is composed of several ranks, during the scan
 871:Drivers/STM32F1xx_HAL_Driver/Src/stm32f1xx_hal_adc_ex.c ****   *            sequence flag JEOC only is raised, at the end of the scan sequence
 872:Drivers/STM32F1xx_HAL_Driver/Src/stm32f1xx_hal_adc_ex.c ****   *            both flags JEOC and EOS are raised.
 873:Drivers/STM32F1xx_HAL_Driver/Src/stm32f1xx_hal_adc_ex.c ****   *         Flag JEOS must not be cleared by this function because
 874:Drivers/STM32F1xx_HAL_Driver/Src/stm32f1xx_hal_adc_ex.c ****   *         it would not be compliant with low power features
 875:Drivers/STM32F1xx_HAL_Driver/Src/stm32f1xx_hal_adc_ex.c ****   *         (feature low power auto-wait, not available on all STM32 families).
 876:Drivers/STM32F1xx_HAL_Driver/Src/stm32f1xx_hal_adc_ex.c ****   *         To clear this flag, either use function: 
 877:Drivers/STM32F1xx_HAL_Driver/Src/stm32f1xx_hal_adc_ex.c ****   *         in programming model IT: @ref HAL_ADC_IRQHandler(), in programming
 878:Drivers/STM32F1xx_HAL_Driver/Src/stm32f1xx_hal_adc_ex.c ****   *         model polling: @ref HAL_ADCEx_InjectedPollForConversion() 
 879:Drivers/STM32F1xx_HAL_Driver/Src/stm32f1xx_hal_adc_ex.c ****   *         or @ref __HAL_ADC_CLEAR_FLAG(&hadc, ADC_FLAG_JEOS).
 880:Drivers/STM32F1xx_HAL_Driver/Src/stm32f1xx_hal_adc_ex.c ****   * @param  hadc: ADC handle
 881:Drivers/STM32F1xx_HAL_Driver/Src/stm32f1xx_hal_adc_ex.c ****   * @param  InjectedRank: the converted ADC injected rank.
 882:Drivers/STM32F1xx_HAL_Driver/Src/stm32f1xx_hal_adc_ex.c ****   *          This parameter can be one of the following values:
 883:Drivers/STM32F1xx_HAL_Driver/Src/stm32f1xx_hal_adc_ex.c ****   *            @arg ADC_INJECTED_RANK_1: Injected Channel1 selected
 884:Drivers/STM32F1xx_HAL_Driver/Src/stm32f1xx_hal_adc_ex.c ****   *            @arg ADC_INJECTED_RANK_2: Injected Channel2 selected
 885:Drivers/STM32F1xx_HAL_Driver/Src/stm32f1xx_hal_adc_ex.c ****   *            @arg ADC_INJECTED_RANK_3: Injected Channel3 selected
 886:Drivers/STM32F1xx_HAL_Driver/Src/stm32f1xx_hal_adc_ex.c ****   *            @arg ADC_INJECTED_RANK_4: Injected Channel4 selected
 887:Drivers/STM32F1xx_HAL_Driver/Src/stm32f1xx_hal_adc_ex.c ****   * @retval ADC group injected conversion data
 888:Drivers/STM32F1xx_HAL_Driver/Src/stm32f1xx_hal_adc_ex.c ****   */
 889:Drivers/STM32F1xx_HAL_Driver/Src/stm32f1xx_hal_adc_ex.c **** uint32_t HAL_ADCEx_InjectedGetValue(ADC_HandleTypeDef* hadc, uint32_t InjectedRank)
 890:Drivers/STM32F1xx_HAL_Driver/Src/stm32f1xx_hal_adc_ex.c **** {
 1441              		.loc 1 890 1 is_stmt 1 view -0
 1442              		.cfi_startproc
 1443              		@ args = 0, pretend = 0, frame = 0
 1444              		@ frame_needed = 0, uses_anonymous_args = 0
 1445              		@ link register save eliminated.
 891:Drivers/STM32F1xx_HAL_Driver/Src/stm32f1xx_hal_adc_ex.c ****   uint32_t tmp_jdr = 0U;
 1446              		.loc 1 891 3 view .LVU415
 892:Drivers/STM32F1xx_HAL_Driver/Src/stm32f1xx_hal_adc_ex.c ****   
 893:Drivers/STM32F1xx_HAL_Driver/Src/stm32f1xx_hal_adc_ex.c ****   /* Check the parameters */
 894:Drivers/STM32F1xx_HAL_Driver/Src/stm32f1xx_hal_adc_ex.c ****   assert_param(IS_ADC_ALL_INSTANCE(hadc->Instance));
 1447              		.loc 1 894 3 view .LVU416
 895:Drivers/STM32F1xx_HAL_Driver/Src/stm32f1xx_hal_adc_ex.c ****   assert_param(IS_ADC_INJECTED_RANK(InjectedRank));
 1448              		.loc 1 895 3 view .LVU417
 896:Drivers/STM32F1xx_HAL_Driver/Src/stm32f1xx_hal_adc_ex.c ****   
 897:Drivers/STM32F1xx_HAL_Driver/Src/stm32f1xx_hal_adc_ex.c ****   /* Get ADC converted value */ 
 898:Drivers/STM32F1xx_HAL_Driver/Src/stm32f1xx_hal_adc_ex.c ****   switch(InjectedRank)
 1449              		.loc 1 898 3 view .LVU418
 1450 0000 0329     		cmp	r1, #3
 1451 0002 09D0     		beq	.L131
 1452 0004 0429     		cmp	r1, #4
ARM GAS  C:\Users\wyx12\AppData\Local\Temp\ccMKDd7z.s 			page 45


 1453 0006 04D0     		beq	.L132
 1454 0008 0229     		cmp	r1, #2
 1455 000a 08D0     		beq	.L137
 899:Drivers/STM32F1xx_HAL_Driver/Src/stm32f1xx_hal_adc_ex.c ****   {  
 900:Drivers/STM32F1xx_HAL_Driver/Src/stm32f1xx_hal_adc_ex.c ****     case ADC_INJECTED_RANK_4: 
 901:Drivers/STM32F1xx_HAL_Driver/Src/stm32f1xx_hal_adc_ex.c ****       tmp_jdr = hadc->Instance->JDR4;
 902:Drivers/STM32F1xx_HAL_Driver/Src/stm32f1xx_hal_adc_ex.c ****       break;
 903:Drivers/STM32F1xx_HAL_Driver/Src/stm32f1xx_hal_adc_ex.c ****     case ADC_INJECTED_RANK_3: 
 904:Drivers/STM32F1xx_HAL_Driver/Src/stm32f1xx_hal_adc_ex.c ****       tmp_jdr = hadc->Instance->JDR3;
 905:Drivers/STM32F1xx_HAL_Driver/Src/stm32f1xx_hal_adc_ex.c ****       break;
 906:Drivers/STM32F1xx_HAL_Driver/Src/stm32f1xx_hal_adc_ex.c ****     case ADC_INJECTED_RANK_2: 
 907:Drivers/STM32F1xx_HAL_Driver/Src/stm32f1xx_hal_adc_ex.c ****       tmp_jdr = hadc->Instance->JDR2;
 908:Drivers/STM32F1xx_HAL_Driver/Src/stm32f1xx_hal_adc_ex.c ****       break;
 909:Drivers/STM32F1xx_HAL_Driver/Src/stm32f1xx_hal_adc_ex.c ****     case ADC_INJECTED_RANK_1:
 910:Drivers/STM32F1xx_HAL_Driver/Src/stm32f1xx_hal_adc_ex.c ****     default:
 911:Drivers/STM32F1xx_HAL_Driver/Src/stm32f1xx_hal_adc_ex.c ****       tmp_jdr = hadc->Instance->JDR1;
 1456              		.loc 1 911 7 view .LVU419
 1457              		.loc 1 911 21 is_stmt 0 view .LVU420
 1458 000c 0368     		ldr	r3, [r0]
 1459              		.loc 1 911 15 view .LVU421
 1460 000e D86B     		ldr	r0, [r3, #60]
 1461              	.LVL84:
 912:Drivers/STM32F1xx_HAL_Driver/Src/stm32f1xx_hal_adc_ex.c ****       break;
 1462              		.loc 1 912 7 is_stmt 1 view .LVU422
 913:Drivers/STM32F1xx_HAL_Driver/Src/stm32f1xx_hal_adc_ex.c ****   }
 914:Drivers/STM32F1xx_HAL_Driver/Src/stm32f1xx_hal_adc_ex.c ****   
 915:Drivers/STM32F1xx_HAL_Driver/Src/stm32f1xx_hal_adc_ex.c ****   /* Return ADC converted value */ 
 916:Drivers/STM32F1xx_HAL_Driver/Src/stm32f1xx_hal_adc_ex.c ****   return tmp_jdr;
 1463              		.loc 1 916 3 view .LVU423
 917:Drivers/STM32F1xx_HAL_Driver/Src/stm32f1xx_hal_adc_ex.c **** }
 1464              		.loc 1 917 1 is_stmt 0 view .LVU424
 1465 0010 7047     		bx	lr
 1466              	.LVL85:
 1467              	.L132:
 901:Drivers/STM32F1xx_HAL_Driver/Src/stm32f1xx_hal_adc_ex.c ****       break;
 1468              		.loc 1 901 7 is_stmt 1 view .LVU425
 901:Drivers/STM32F1xx_HAL_Driver/Src/stm32f1xx_hal_adc_ex.c ****       break;
 1469              		.loc 1 901 21 is_stmt 0 view .LVU426
 1470 0012 0368     		ldr	r3, [r0]
 901:Drivers/STM32F1xx_HAL_Driver/Src/stm32f1xx_hal_adc_ex.c ****       break;
 1471              		.loc 1 901 15 view .LVU427
 1472 0014 986C     		ldr	r0, [r3, #72]
 1473              	.LVL86:
 902:Drivers/STM32F1xx_HAL_Driver/Src/stm32f1xx_hal_adc_ex.c ****     case ADC_INJECTED_RANK_3: 
 1474              		.loc 1 902 7 is_stmt 1 view .LVU428
 1475 0016 7047     		bx	lr
 1476              	.LVL87:
 1477              	.L131:
 904:Drivers/STM32F1xx_HAL_Driver/Src/stm32f1xx_hal_adc_ex.c ****       break;
 1478              		.loc 1 904 7 view .LVU429
 904:Drivers/STM32F1xx_HAL_Driver/Src/stm32f1xx_hal_adc_ex.c ****       break;
 1479              		.loc 1 904 21 is_stmt 0 view .LVU430
 1480 0018 0368     		ldr	r3, [r0]
 904:Drivers/STM32F1xx_HAL_Driver/Src/stm32f1xx_hal_adc_ex.c ****       break;
 1481              		.loc 1 904 15 view .LVU431
 1482 001a 586C     		ldr	r0, [r3, #68]
 1483              	.LVL88:
ARM GAS  C:\Users\wyx12\AppData\Local\Temp\ccMKDd7z.s 			page 46


 905:Drivers/STM32F1xx_HAL_Driver/Src/stm32f1xx_hal_adc_ex.c ****     case ADC_INJECTED_RANK_2: 
 1484              		.loc 1 905 7 is_stmt 1 view .LVU432
 1485 001c 7047     		bx	lr
 1486              	.LVL89:
 1487              	.L137:
 907:Drivers/STM32F1xx_HAL_Driver/Src/stm32f1xx_hal_adc_ex.c ****       break;
 1488              		.loc 1 907 7 view .LVU433
 907:Drivers/STM32F1xx_HAL_Driver/Src/stm32f1xx_hal_adc_ex.c ****       break;
 1489              		.loc 1 907 21 is_stmt 0 view .LVU434
 1490 001e 0368     		ldr	r3, [r0]
 907:Drivers/STM32F1xx_HAL_Driver/Src/stm32f1xx_hal_adc_ex.c ****       break;
 1491              		.loc 1 907 15 view .LVU435
 1492 0020 186C     		ldr	r0, [r3, #64]
 1493              	.LVL90:
 908:Drivers/STM32F1xx_HAL_Driver/Src/stm32f1xx_hal_adc_ex.c ****     case ADC_INJECTED_RANK_1:
 1494              		.loc 1 908 7 is_stmt 1 view .LVU436
 1495 0022 7047     		bx	lr
 1496              		.cfi_endproc
 1497              	.LFE73:
 1499              		.section	.text.HAL_ADCEx_MultiModeGetValue,"ax",%progbits
 1500              		.align	1
 1501              		.global	HAL_ADCEx_MultiModeGetValue
 1502              		.syntax unified
 1503              		.thumb
 1504              		.thumb_func
 1506              	HAL_ADCEx_MultiModeGetValue:
 1507              	.LVL91:
 1508              	.LFB74:
 918:Drivers/STM32F1xx_HAL_Driver/Src/stm32f1xx_hal_adc_ex.c **** 
 919:Drivers/STM32F1xx_HAL_Driver/Src/stm32f1xx_hal_adc_ex.c **** #if defined (STM32F103x6) || defined (STM32F103xB) || defined (STM32F105xC) || defined (STM32F107xC
 920:Drivers/STM32F1xx_HAL_Driver/Src/stm32f1xx_hal_adc_ex.c **** /**
 921:Drivers/STM32F1xx_HAL_Driver/Src/stm32f1xx_hal_adc_ex.c ****   * @brief  Returns the last ADC Master&Slave regular conversions results data
 922:Drivers/STM32F1xx_HAL_Driver/Src/stm32f1xx_hal_adc_ex.c ****   *         in the selected multi mode.
 923:Drivers/STM32F1xx_HAL_Driver/Src/stm32f1xx_hal_adc_ex.c ****   * @param  hadc: ADC handle of ADC master (handle of ADC slave must not be used)
 924:Drivers/STM32F1xx_HAL_Driver/Src/stm32f1xx_hal_adc_ex.c ****   * @retval The converted data value.
 925:Drivers/STM32F1xx_HAL_Driver/Src/stm32f1xx_hal_adc_ex.c ****   */
 926:Drivers/STM32F1xx_HAL_Driver/Src/stm32f1xx_hal_adc_ex.c **** uint32_t HAL_ADCEx_MultiModeGetValue(ADC_HandleTypeDef* hadc)
 927:Drivers/STM32F1xx_HAL_Driver/Src/stm32f1xx_hal_adc_ex.c **** {
 1509              		.loc 1 927 1 view -0
 1510              		.cfi_startproc
 1511              		@ args = 0, pretend = 0, frame = 0
 1512              		@ frame_needed = 0, uses_anonymous_args = 0
 1513              		@ link register save eliminated.
 928:Drivers/STM32F1xx_HAL_Driver/Src/stm32f1xx_hal_adc_ex.c ****   uint32_t tmpDR = 0U;
 1514              		.loc 1 928 3 view .LVU438
 929:Drivers/STM32F1xx_HAL_Driver/Src/stm32f1xx_hal_adc_ex.c ****   
 930:Drivers/STM32F1xx_HAL_Driver/Src/stm32f1xx_hal_adc_ex.c ****   /* Check the parameters */
 931:Drivers/STM32F1xx_HAL_Driver/Src/stm32f1xx_hal_adc_ex.c ****   assert_param(IS_ADC_MULTIMODE_MASTER_INSTANCE(hadc->Instance));
 1515              		.loc 1 931 3 view .LVU439
 932:Drivers/STM32F1xx_HAL_Driver/Src/stm32f1xx_hal_adc_ex.c ****   
 933:Drivers/STM32F1xx_HAL_Driver/Src/stm32f1xx_hal_adc_ex.c ****   /* Check the parameters */
 934:Drivers/STM32F1xx_HAL_Driver/Src/stm32f1xx_hal_adc_ex.c ****   assert_param(IS_ADC_ALL_INSTANCE(hadc->Instance));
 1516              		.loc 1 934 3 view .LVU440
 935:Drivers/STM32F1xx_HAL_Driver/Src/stm32f1xx_hal_adc_ex.c **** 
 936:Drivers/STM32F1xx_HAL_Driver/Src/stm32f1xx_hal_adc_ex.c ****   /* Note: EOC flag is not cleared here by software because automatically     */
 937:Drivers/STM32F1xx_HAL_Driver/Src/stm32f1xx_hal_adc_ex.c ****   /*       cleared by hardware when reading register DR.                      */
 938:Drivers/STM32F1xx_HAL_Driver/Src/stm32f1xx_hal_adc_ex.c ****   
ARM GAS  C:\Users\wyx12\AppData\Local\Temp\ccMKDd7z.s 			page 47


 939:Drivers/STM32F1xx_HAL_Driver/Src/stm32f1xx_hal_adc_ex.c ****   /* On STM32F1 devices, ADC1 data register DR contains ADC2 conversions      */
 940:Drivers/STM32F1xx_HAL_Driver/Src/stm32f1xx_hal_adc_ex.c ****   /* only if ADC1 DMA mode is enabled.                                        */
 941:Drivers/STM32F1xx_HAL_Driver/Src/stm32f1xx_hal_adc_ex.c ****   tmpDR = hadc->Instance->DR;
 1517              		.loc 1 941 3 view .LVU441
 1518              		.loc 1 941 15 is_stmt 0 view .LVU442
 1519 0000 0368     		ldr	r3, [r0]
 1520              		.loc 1 941 9 view .LVU443
 1521 0002 D86C     		ldr	r0, [r3, #76]
 1522              	.LVL92:
 942:Drivers/STM32F1xx_HAL_Driver/Src/stm32f1xx_hal_adc_ex.c **** 
 943:Drivers/STM32F1xx_HAL_Driver/Src/stm32f1xx_hal_adc_ex.c ****   if (HAL_IS_BIT_CLR(ADC1->CR2, ADC_CR2_DMA))
 1523              		.loc 1 943 3 is_stmt 1 view .LVU444
 1524              		.loc 1 943 7 is_stmt 0 view .LVU445
 1525 0004 044B     		ldr	r3, .L140
 1526 0006 9B68     		ldr	r3, [r3, #8]
 1527              		.loc 1 943 6 view .LVU446
 1528 0008 13F4807F 		tst	r3, #256
 1529 000c 03D1     		bne	.L138
 944:Drivers/STM32F1xx_HAL_Driver/Src/stm32f1xx_hal_adc_ex.c ****   {
 945:Drivers/STM32F1xx_HAL_Driver/Src/stm32f1xx_hal_adc_ex.c ****     tmpDR |= (ADC2->DR << 16U);
 1530              		.loc 1 945 5 is_stmt 1 view .LVU447
 1531              		.loc 1 945 19 is_stmt 0 view .LVU448
 1532 000e 034B     		ldr	r3, .L140+4
 1533 0010 DB6C     		ldr	r3, [r3, #76]
 1534              		.loc 1 945 11 view .LVU449
 1535 0012 40EA0340 		orr	r0, r0, r3, lsl #16
 1536              	.LVL93:
 946:Drivers/STM32F1xx_HAL_Driver/Src/stm32f1xx_hal_adc_ex.c ****   }
 947:Drivers/STM32F1xx_HAL_Driver/Src/stm32f1xx_hal_adc_ex.c ****     
 948:Drivers/STM32F1xx_HAL_Driver/Src/stm32f1xx_hal_adc_ex.c ****   /* Return ADC converted value */ 
 949:Drivers/STM32F1xx_HAL_Driver/Src/stm32f1xx_hal_adc_ex.c ****   return tmpDR;
 1537              		.loc 1 949 3 is_stmt 1 view .LVU450
 1538              	.L138:
 950:Drivers/STM32F1xx_HAL_Driver/Src/stm32f1xx_hal_adc_ex.c **** }
 1539              		.loc 1 950 1 is_stmt 0 view .LVU451
 1540 0016 7047     		bx	lr
 1541              	.L141:
 1542              		.align	2
 1543              	.L140:
 1544 0018 00240140 		.word	1073816576
 1545 001c 00280140 		.word	1073817600
 1546              		.cfi_endproc
 1547              	.LFE74:
 1549              		.section	.text.HAL_ADCEx_InjectedConvCpltCallback,"ax",%progbits
 1550              		.align	1
 1551              		.weak	HAL_ADCEx_InjectedConvCpltCallback
 1552              		.syntax unified
 1553              		.thumb
 1554              		.thumb_func
 1556              	HAL_ADCEx_InjectedConvCpltCallback:
 1557              	.LVL94:
 1558              	.LFB75:
 951:Drivers/STM32F1xx_HAL_Driver/Src/stm32f1xx_hal_adc_ex.c **** #endif /* defined STM32F103x6 || defined STM32F103xB || defined STM32F105xC || defined STM32F107xC 
 952:Drivers/STM32F1xx_HAL_Driver/Src/stm32f1xx_hal_adc_ex.c **** 
 953:Drivers/STM32F1xx_HAL_Driver/Src/stm32f1xx_hal_adc_ex.c **** /**
 954:Drivers/STM32F1xx_HAL_Driver/Src/stm32f1xx_hal_adc_ex.c ****   * @brief  Injected conversion complete callback in non blocking mode 
 955:Drivers/STM32F1xx_HAL_Driver/Src/stm32f1xx_hal_adc_ex.c ****   * @param  hadc: ADC handle
ARM GAS  C:\Users\wyx12\AppData\Local\Temp\ccMKDd7z.s 			page 48


 956:Drivers/STM32F1xx_HAL_Driver/Src/stm32f1xx_hal_adc_ex.c ****   * @retval None
 957:Drivers/STM32F1xx_HAL_Driver/Src/stm32f1xx_hal_adc_ex.c ****   */
 958:Drivers/STM32F1xx_HAL_Driver/Src/stm32f1xx_hal_adc_ex.c **** __weak void HAL_ADCEx_InjectedConvCpltCallback(ADC_HandleTypeDef* hadc)
 959:Drivers/STM32F1xx_HAL_Driver/Src/stm32f1xx_hal_adc_ex.c **** {
 1559              		.loc 1 959 1 is_stmt 1 view -0
 1560              		.cfi_startproc
 1561              		@ args = 0, pretend = 0, frame = 0
 1562              		@ frame_needed = 0, uses_anonymous_args = 0
 1563              		@ link register save eliminated.
 960:Drivers/STM32F1xx_HAL_Driver/Src/stm32f1xx_hal_adc_ex.c ****   /* Prevent unused argument(s) compilation warning */
 961:Drivers/STM32F1xx_HAL_Driver/Src/stm32f1xx_hal_adc_ex.c ****   UNUSED(hadc);
 1564              		.loc 1 961 3 view .LVU453
 962:Drivers/STM32F1xx_HAL_Driver/Src/stm32f1xx_hal_adc_ex.c ****   /* NOTE : This function Should not be modified, when the callback is needed,
 963:Drivers/STM32F1xx_HAL_Driver/Src/stm32f1xx_hal_adc_ex.c ****             the HAL_ADCEx_InjectedConvCpltCallback could be implemented in the user file
 964:Drivers/STM32F1xx_HAL_Driver/Src/stm32f1xx_hal_adc_ex.c ****   */
 965:Drivers/STM32F1xx_HAL_Driver/Src/stm32f1xx_hal_adc_ex.c **** }
 1565              		.loc 1 965 1 is_stmt 0 view .LVU454
 1566 0000 7047     		bx	lr
 1567              		.cfi_endproc
 1568              	.LFE75:
 1570              		.section	.text.HAL_ADCEx_InjectedConfigChannel,"ax",%progbits
 1571              		.align	1
 1572              		.global	HAL_ADCEx_InjectedConfigChannel
 1573              		.syntax unified
 1574              		.thumb
 1575              		.thumb_func
 1577              	HAL_ADCEx_InjectedConfigChannel:
 1578              	.LVL95:
 1579              	.LFB76:
 966:Drivers/STM32F1xx_HAL_Driver/Src/stm32f1xx_hal_adc_ex.c **** 
 967:Drivers/STM32F1xx_HAL_Driver/Src/stm32f1xx_hal_adc_ex.c **** /**
 968:Drivers/STM32F1xx_HAL_Driver/Src/stm32f1xx_hal_adc_ex.c ****   * @}
 969:Drivers/STM32F1xx_HAL_Driver/Src/stm32f1xx_hal_adc_ex.c ****   */
 970:Drivers/STM32F1xx_HAL_Driver/Src/stm32f1xx_hal_adc_ex.c **** 
 971:Drivers/STM32F1xx_HAL_Driver/Src/stm32f1xx_hal_adc_ex.c **** /** @defgroup ADCEx_Exported_Functions_Group2 Extended Peripheral Control functions
 972:Drivers/STM32F1xx_HAL_Driver/Src/stm32f1xx_hal_adc_ex.c ****   * @brief    Extended Peripheral Control functions
 973:Drivers/STM32F1xx_HAL_Driver/Src/stm32f1xx_hal_adc_ex.c ****   *
 974:Drivers/STM32F1xx_HAL_Driver/Src/stm32f1xx_hal_adc_ex.c **** @verbatim   
 975:Drivers/STM32F1xx_HAL_Driver/Src/stm32f1xx_hal_adc_ex.c ****  ===============================================================================
 976:Drivers/STM32F1xx_HAL_Driver/Src/stm32f1xx_hal_adc_ex.c ****              ##### Peripheral Control functions #####
 977:Drivers/STM32F1xx_HAL_Driver/Src/stm32f1xx_hal_adc_ex.c ****  ===============================================================================  
 978:Drivers/STM32F1xx_HAL_Driver/Src/stm32f1xx_hal_adc_ex.c ****     [..]  This section provides functions allowing to:
 979:Drivers/STM32F1xx_HAL_Driver/Src/stm32f1xx_hal_adc_ex.c ****       (+) Configure channels on injected group
 980:Drivers/STM32F1xx_HAL_Driver/Src/stm32f1xx_hal_adc_ex.c ****       (+) Configure multimode
 981:Drivers/STM32F1xx_HAL_Driver/Src/stm32f1xx_hal_adc_ex.c **** 
 982:Drivers/STM32F1xx_HAL_Driver/Src/stm32f1xx_hal_adc_ex.c **** @endverbatim
 983:Drivers/STM32F1xx_HAL_Driver/Src/stm32f1xx_hal_adc_ex.c ****   * @{
 984:Drivers/STM32F1xx_HAL_Driver/Src/stm32f1xx_hal_adc_ex.c ****   */
 985:Drivers/STM32F1xx_HAL_Driver/Src/stm32f1xx_hal_adc_ex.c **** 
 986:Drivers/STM32F1xx_HAL_Driver/Src/stm32f1xx_hal_adc_ex.c **** /**
 987:Drivers/STM32F1xx_HAL_Driver/Src/stm32f1xx_hal_adc_ex.c ****   * @brief  Configures the ADC injected group and the selected channel to be
 988:Drivers/STM32F1xx_HAL_Driver/Src/stm32f1xx_hal_adc_ex.c ****   *         linked to the injected group.
 989:Drivers/STM32F1xx_HAL_Driver/Src/stm32f1xx_hal_adc_ex.c ****   * @note   Possibility to update parameters on the fly:
 990:Drivers/STM32F1xx_HAL_Driver/Src/stm32f1xx_hal_adc_ex.c ****   *         This function initializes injected group, following calls to this 
 991:Drivers/STM32F1xx_HAL_Driver/Src/stm32f1xx_hal_adc_ex.c ****   *         function can be used to reconfigure some parameters of structure
 992:Drivers/STM32F1xx_HAL_Driver/Src/stm32f1xx_hal_adc_ex.c ****   *         "ADC_InjectionConfTypeDef" on the fly, without resetting the ADC.
 993:Drivers/STM32F1xx_HAL_Driver/Src/stm32f1xx_hal_adc_ex.c ****   *         The setting of these parameters is conditioned to ADC state: 
ARM GAS  C:\Users\wyx12\AppData\Local\Temp\ccMKDd7z.s 			page 49


 994:Drivers/STM32F1xx_HAL_Driver/Src/stm32f1xx_hal_adc_ex.c ****   *         this function must be called when ADC is not under conversion.
 995:Drivers/STM32F1xx_HAL_Driver/Src/stm32f1xx_hal_adc_ex.c ****   * @param  hadc: ADC handle
 996:Drivers/STM32F1xx_HAL_Driver/Src/stm32f1xx_hal_adc_ex.c ****   * @param  sConfigInjected: Structure of ADC injected group and ADC channel for
 997:Drivers/STM32F1xx_HAL_Driver/Src/stm32f1xx_hal_adc_ex.c ****   *         injected group.
 998:Drivers/STM32F1xx_HAL_Driver/Src/stm32f1xx_hal_adc_ex.c ****   * @retval None
 999:Drivers/STM32F1xx_HAL_Driver/Src/stm32f1xx_hal_adc_ex.c ****   */
1000:Drivers/STM32F1xx_HAL_Driver/Src/stm32f1xx_hal_adc_ex.c **** HAL_StatusTypeDef HAL_ADCEx_InjectedConfigChannel(ADC_HandleTypeDef* hadc, ADC_InjectionConfTypeDef
1001:Drivers/STM32F1xx_HAL_Driver/Src/stm32f1xx_hal_adc_ex.c **** {
 1580              		.loc 1 1001 1 is_stmt 1 view -0
 1581              		.cfi_startproc
 1582              		@ args = 0, pretend = 0, frame = 8
 1583              		@ frame_needed = 0, uses_anonymous_args = 0
 1584              		@ link register save eliminated.
 1585              		.loc 1 1001 1 is_stmt 0 view .LVU456
 1586 0000 70B4     		push	{r4, r5, r6}
 1587              	.LCFI24:
 1588              		.cfi_def_cfa_offset 12
 1589              		.cfi_offset 4, -12
 1590              		.cfi_offset 5, -8
 1591              		.cfi_offset 6, -4
 1592 0002 83B0     		sub	sp, sp, #12
 1593              	.LCFI25:
 1594              		.cfi_def_cfa_offset 24
 1595 0004 0346     		mov	r3, r0
1002:Drivers/STM32F1xx_HAL_Driver/Src/stm32f1xx_hal_adc_ex.c ****   HAL_StatusTypeDef tmp_hal_status = HAL_OK;
 1596              		.loc 1 1002 3 is_stmt 1 view .LVU457
 1597              	.LVL96:
1003:Drivers/STM32F1xx_HAL_Driver/Src/stm32f1xx_hal_adc_ex.c ****   __IO uint32_t wait_loop_index = 0U;
 1598              		.loc 1 1003 3 view .LVU458
 1599              		.loc 1 1003 17 is_stmt 0 view .LVU459
 1600 0006 0022     		movs	r2, #0
 1601 0008 0192     		str	r2, [sp, #4]
1004:Drivers/STM32F1xx_HAL_Driver/Src/stm32f1xx_hal_adc_ex.c ****   
1005:Drivers/STM32F1xx_HAL_Driver/Src/stm32f1xx_hal_adc_ex.c ****   /* Check the parameters */
1006:Drivers/STM32F1xx_HAL_Driver/Src/stm32f1xx_hal_adc_ex.c ****   assert_param(IS_ADC_ALL_INSTANCE(hadc->Instance));
 1602              		.loc 1 1006 3 is_stmt 1 view .LVU460
1007:Drivers/STM32F1xx_HAL_Driver/Src/stm32f1xx_hal_adc_ex.c ****   assert_param(IS_ADC_CHANNEL(sConfigInjected->InjectedChannel));
 1603              		.loc 1 1007 3 view .LVU461
1008:Drivers/STM32F1xx_HAL_Driver/Src/stm32f1xx_hal_adc_ex.c ****   assert_param(IS_ADC_SAMPLE_TIME(sConfigInjected->InjectedSamplingTime));
 1604              		.loc 1 1008 3 view .LVU462
1009:Drivers/STM32F1xx_HAL_Driver/Src/stm32f1xx_hal_adc_ex.c ****   assert_param(IS_FUNCTIONAL_STATE(sConfigInjected->AutoInjectedConv));
 1605              		.loc 1 1009 3 view .LVU463
1010:Drivers/STM32F1xx_HAL_Driver/Src/stm32f1xx_hal_adc_ex.c ****   assert_param(IS_ADC_EXTTRIGINJEC(sConfigInjected->ExternalTrigInjecConv));
 1606              		.loc 1 1010 3 view .LVU464
1011:Drivers/STM32F1xx_HAL_Driver/Src/stm32f1xx_hal_adc_ex.c ****   assert_param(IS_ADC_RANGE(sConfigInjected->InjectedOffset));
 1607              		.loc 1 1011 3 view .LVU465
1012:Drivers/STM32F1xx_HAL_Driver/Src/stm32f1xx_hal_adc_ex.c ****   
1013:Drivers/STM32F1xx_HAL_Driver/Src/stm32f1xx_hal_adc_ex.c ****   if(hadc->Init.ScanConvMode != ADC_SCAN_DISABLE)
 1608              		.loc 1 1013 3 view .LVU466
 1609              		.loc 1 1013 16 is_stmt 0 view .LVU467
 1610 000a 8068     		ldr	r0, [r0, #8]
 1611              	.LVL97:
1014:Drivers/STM32F1xx_HAL_Driver/Src/stm32f1xx_hal_adc_ex.c ****   {
1015:Drivers/STM32F1xx_HAL_Driver/Src/stm32f1xx_hal_adc_ex.c ****     assert_param(IS_ADC_INJECTED_RANK(sConfigInjected->InjectedRank));
 1612              		.loc 1 1015 5 is_stmt 1 view .LVU468
1016:Drivers/STM32F1xx_HAL_Driver/Src/stm32f1xx_hal_adc_ex.c ****     assert_param(IS_ADC_INJECTED_NB_CONV(sConfigInjected->InjectedNbrOfConversion));
 1613              		.loc 1 1016 5 view .LVU469
ARM GAS  C:\Users\wyx12\AppData\Local\Temp\ccMKDd7z.s 			page 50


1017:Drivers/STM32F1xx_HAL_Driver/Src/stm32f1xx_hal_adc_ex.c ****     assert_param(IS_FUNCTIONAL_STATE(sConfigInjected->InjectedDiscontinuousConvMode));
 1614              		.loc 1 1017 5 view .LVU470
1018:Drivers/STM32F1xx_HAL_Driver/Src/stm32f1xx_hal_adc_ex.c ****   }
1019:Drivers/STM32F1xx_HAL_Driver/Src/stm32f1xx_hal_adc_ex.c ****   
1020:Drivers/STM32F1xx_HAL_Driver/Src/stm32f1xx_hal_adc_ex.c ****   /* Process locked */
1021:Drivers/STM32F1xx_HAL_Driver/Src/stm32f1xx_hal_adc_ex.c ****   __HAL_LOCK(hadc);
 1615              		.loc 1 1021 3 view .LVU471
 1616              		.loc 1 1021 3 view .LVU472
 1617 000c 93F82420 		ldrb	r2, [r3, #36]	@ zero_extendqisi2
 1618 0010 012A     		cmp	r2, #1
 1619 0012 00F00981 		beq	.L167
 1620              		.loc 1 1021 3 discriminator 2 view .LVU473
 1621 0016 0122     		movs	r2, #1
 1622 0018 83F82420 		strb	r2, [r3, #36]
 1623              		.loc 1 1021 3 discriminator 2 view .LVU474
1022:Drivers/STM32F1xx_HAL_Driver/Src/stm32f1xx_hal_adc_ex.c ****   
1023:Drivers/STM32F1xx_HAL_Driver/Src/stm32f1xx_hal_adc_ex.c ****   /* Configuration of injected group sequencer:                               */
1024:Drivers/STM32F1xx_HAL_Driver/Src/stm32f1xx_hal_adc_ex.c ****   /* - if scan mode is disabled, injected channels sequence length is set to  */
1025:Drivers/STM32F1xx_HAL_Driver/Src/stm32f1xx_hal_adc_ex.c ****   /*   0x00: 1 channel converted (channel on regular rank 1)                  */
1026:Drivers/STM32F1xx_HAL_Driver/Src/stm32f1xx_hal_adc_ex.c ****   /*   Parameter "InjectedNbrOfConversion" is discarded.                      */
1027:Drivers/STM32F1xx_HAL_Driver/Src/stm32f1xx_hal_adc_ex.c ****   /*   Note: Scan mode is present by hardware on this device and, if          */
1028:Drivers/STM32F1xx_HAL_Driver/Src/stm32f1xx_hal_adc_ex.c ****   /*   disabled, discards automatically nb of conversions. Anyway, nb of      */
1029:Drivers/STM32F1xx_HAL_Driver/Src/stm32f1xx_hal_adc_ex.c ****   /*   conversions is forced to 0x00 for alignment over all STM32 devices.    */
1030:Drivers/STM32F1xx_HAL_Driver/Src/stm32f1xx_hal_adc_ex.c ****   /* - if scan mode is enabled, injected channels sequence length is set to   */
1031:Drivers/STM32F1xx_HAL_Driver/Src/stm32f1xx_hal_adc_ex.c ****   /*   parameter "InjectedNbrOfConversion".                                   */
1032:Drivers/STM32F1xx_HAL_Driver/Src/stm32f1xx_hal_adc_ex.c ****   if (hadc->Init.ScanConvMode == ADC_SCAN_DISABLE)
 1624              		.loc 1 1032 3 discriminator 2 view .LVU475
 1625              		.loc 1 1032 6 is_stmt 0 discriminator 2 view .LVU476
 1626 001c 0028     		cmp	r0, #0
 1627 001e 51D1     		bne	.L145
1033:Drivers/STM32F1xx_HAL_Driver/Src/stm32f1xx_hal_adc_ex.c ****   {
1034:Drivers/STM32F1xx_HAL_Driver/Src/stm32f1xx_hal_adc_ex.c ****     if (sConfigInjected->InjectedRank == ADC_INJECTED_RANK_1)
 1628              		.loc 1 1034 5 is_stmt 1 view .LVU477
 1629              		.loc 1 1034 24 is_stmt 0 view .LVU478
 1630 0020 4A68     		ldr	r2, [r1, #4]
 1631              		.loc 1 1034 8 view .LVU479
 1632 0022 012A     		cmp	r2, #1
 1633 0024 44D0     		beq	.L169
1035:Drivers/STM32F1xx_HAL_Driver/Src/stm32f1xx_hal_adc_ex.c ****     {
1036:Drivers/STM32F1xx_HAL_Driver/Src/stm32f1xx_hal_adc_ex.c ****       /* Clear the old SQx bits for all injected ranks */
1037:Drivers/STM32F1xx_HAL_Driver/Src/stm32f1xx_hal_adc_ex.c ****       MODIFY_REG(hadc->Instance->JSQR                             ,
1038:Drivers/STM32F1xx_HAL_Driver/Src/stm32f1xx_hal_adc_ex.c ****                  ADC_JSQR_JL   |
1039:Drivers/STM32F1xx_HAL_Driver/Src/stm32f1xx_hal_adc_ex.c ****                  ADC_JSQR_JSQ4 |
1040:Drivers/STM32F1xx_HAL_Driver/Src/stm32f1xx_hal_adc_ex.c ****                  ADC_JSQR_JSQ3 |
1041:Drivers/STM32F1xx_HAL_Driver/Src/stm32f1xx_hal_adc_ex.c ****                  ADC_JSQR_JSQ2 |
1042:Drivers/STM32F1xx_HAL_Driver/Src/stm32f1xx_hal_adc_ex.c ****                  ADC_JSQR_JSQ1                                    ,
1043:Drivers/STM32F1xx_HAL_Driver/Src/stm32f1xx_hal_adc_ex.c ****                  ADC_JSQR_RK_JL(sConfigInjected->InjectedChannel,
1044:Drivers/STM32F1xx_HAL_Driver/Src/stm32f1xx_hal_adc_ex.c ****                                   ADC_INJECTED_RANK_1,
1045:Drivers/STM32F1xx_HAL_Driver/Src/stm32f1xx_hal_adc_ex.c ****                                   0x01U));
1046:Drivers/STM32F1xx_HAL_Driver/Src/stm32f1xx_hal_adc_ex.c ****     }
1047:Drivers/STM32F1xx_HAL_Driver/Src/stm32f1xx_hal_adc_ex.c ****     /* If another injected rank than rank1 was intended to be set, and could  */
1048:Drivers/STM32F1xx_HAL_Driver/Src/stm32f1xx_hal_adc_ex.c ****     /* not due to ScanConvMode disabled, error is reported.                   */
1049:Drivers/STM32F1xx_HAL_Driver/Src/stm32f1xx_hal_adc_ex.c ****     else
1050:Drivers/STM32F1xx_HAL_Driver/Src/stm32f1xx_hal_adc_ex.c ****     {
1051:Drivers/STM32F1xx_HAL_Driver/Src/stm32f1xx_hal_adc_ex.c ****       /* Update ADC state machine to error */
1052:Drivers/STM32F1xx_HAL_Driver/Src/stm32f1xx_hal_adc_ex.c ****       SET_BIT(hadc->State, HAL_ADC_STATE_ERROR_CONFIG);
 1634              		.loc 1 1052 7 is_stmt 1 view .LVU480
ARM GAS  C:\Users\wyx12\AppData\Local\Temp\ccMKDd7z.s 			page 51


 1635 0026 9A6A     		ldr	r2, [r3, #40]
 1636 0028 42F02002 		orr	r2, r2, #32
 1637 002c 9A62     		str	r2, [r3, #40]
1053:Drivers/STM32F1xx_HAL_Driver/Src/stm32f1xx_hal_adc_ex.c ****       
1054:Drivers/STM32F1xx_HAL_Driver/Src/stm32f1xx_hal_adc_ex.c ****       tmp_hal_status = HAL_ERROR;
 1638              		.loc 1 1054 7 view .LVU481
 1639              	.LVL98:
 1640              		.loc 1 1054 22 is_stmt 0 view .LVU482
 1641 002e 0120     		movs	r0, #1
 1642              	.LVL99:
 1643              	.L147:
1055:Drivers/STM32F1xx_HAL_Driver/Src/stm32f1xx_hal_adc_ex.c ****     }
1056:Drivers/STM32F1xx_HAL_Driver/Src/stm32f1xx_hal_adc_ex.c ****   }
1057:Drivers/STM32F1xx_HAL_Driver/Src/stm32f1xx_hal_adc_ex.c ****   else
1058:Drivers/STM32F1xx_HAL_Driver/Src/stm32f1xx_hal_adc_ex.c ****   {
1059:Drivers/STM32F1xx_HAL_Driver/Src/stm32f1xx_hal_adc_ex.c ****     /* Since injected channels rank conv. order depends on total number of   */
1060:Drivers/STM32F1xx_HAL_Driver/Src/stm32f1xx_hal_adc_ex.c ****     /* injected conversions, selected rank must be below or equal to total   */
1061:Drivers/STM32F1xx_HAL_Driver/Src/stm32f1xx_hal_adc_ex.c ****     /* number of injected conversions to be updated.                         */
1062:Drivers/STM32F1xx_HAL_Driver/Src/stm32f1xx_hal_adc_ex.c ****     if (sConfigInjected->InjectedRank <= sConfigInjected->InjectedNbrOfConversion)
1063:Drivers/STM32F1xx_HAL_Driver/Src/stm32f1xx_hal_adc_ex.c ****     {
1064:Drivers/STM32F1xx_HAL_Driver/Src/stm32f1xx_hal_adc_ex.c ****       /* Clear the old SQx bits for the selected rank */
1065:Drivers/STM32F1xx_HAL_Driver/Src/stm32f1xx_hal_adc_ex.c ****       /* Set the SQx bits for the selected rank */
1066:Drivers/STM32F1xx_HAL_Driver/Src/stm32f1xx_hal_adc_ex.c ****       MODIFY_REG(hadc->Instance->JSQR                                         ,
1067:Drivers/STM32F1xx_HAL_Driver/Src/stm32f1xx_hal_adc_ex.c ****                  
1068:Drivers/STM32F1xx_HAL_Driver/Src/stm32f1xx_hal_adc_ex.c ****                  ADC_JSQR_JL                                               |
1069:Drivers/STM32F1xx_HAL_Driver/Src/stm32f1xx_hal_adc_ex.c ****                  ADC_JSQR_RK_JL(ADC_JSQR_JSQ1,                         
1070:Drivers/STM32F1xx_HAL_Driver/Src/stm32f1xx_hal_adc_ex.c ****                                   sConfigInjected->InjectedRank,         
1071:Drivers/STM32F1xx_HAL_Driver/Src/stm32f1xx_hal_adc_ex.c ****                                   sConfigInjected->InjectedNbrOfConversion)   ,
1072:Drivers/STM32F1xx_HAL_Driver/Src/stm32f1xx_hal_adc_ex.c ****                  
1073:Drivers/STM32F1xx_HAL_Driver/Src/stm32f1xx_hal_adc_ex.c ****                  ADC_JSQR_JL_SHIFT(sConfigInjected->InjectedNbrOfConversion) |
1074:Drivers/STM32F1xx_HAL_Driver/Src/stm32f1xx_hal_adc_ex.c ****                  ADC_JSQR_RK_JL(sConfigInjected->InjectedChannel,      
1075:Drivers/STM32F1xx_HAL_Driver/Src/stm32f1xx_hal_adc_ex.c ****                                   sConfigInjected->InjectedRank,         
1076:Drivers/STM32F1xx_HAL_Driver/Src/stm32f1xx_hal_adc_ex.c ****                                   sConfigInjected->InjectedNbrOfConversion)    );
1077:Drivers/STM32F1xx_HAL_Driver/Src/stm32f1xx_hal_adc_ex.c ****     }
1078:Drivers/STM32F1xx_HAL_Driver/Src/stm32f1xx_hal_adc_ex.c ****     else
1079:Drivers/STM32F1xx_HAL_Driver/Src/stm32f1xx_hal_adc_ex.c ****     {
1080:Drivers/STM32F1xx_HAL_Driver/Src/stm32f1xx_hal_adc_ex.c ****       /* Clear the old SQx bits for the selected rank */
1081:Drivers/STM32F1xx_HAL_Driver/Src/stm32f1xx_hal_adc_ex.c ****       MODIFY_REG(hadc->Instance->JSQR                                       ,
1082:Drivers/STM32F1xx_HAL_Driver/Src/stm32f1xx_hal_adc_ex.c ****                  
1083:Drivers/STM32F1xx_HAL_Driver/Src/stm32f1xx_hal_adc_ex.c ****                  ADC_JSQR_JL                                               |
1084:Drivers/STM32F1xx_HAL_Driver/Src/stm32f1xx_hal_adc_ex.c ****                  ADC_JSQR_RK_JL(ADC_JSQR_JSQ1,                         
1085:Drivers/STM32F1xx_HAL_Driver/Src/stm32f1xx_hal_adc_ex.c ****                                   sConfigInjected->InjectedRank,         
1086:Drivers/STM32F1xx_HAL_Driver/Src/stm32f1xx_hal_adc_ex.c ****                                   sConfigInjected->InjectedNbrOfConversion) ,
1087:Drivers/STM32F1xx_HAL_Driver/Src/stm32f1xx_hal_adc_ex.c ****                  
1088:Drivers/STM32F1xx_HAL_Driver/Src/stm32f1xx_hal_adc_ex.c ****                  0x00000000U);
1089:Drivers/STM32F1xx_HAL_Driver/Src/stm32f1xx_hal_adc_ex.c ****     }
1090:Drivers/STM32F1xx_HAL_Driver/Src/stm32f1xx_hal_adc_ex.c ****   } 
1091:Drivers/STM32F1xx_HAL_Driver/Src/stm32f1xx_hal_adc_ex.c ****     
1092:Drivers/STM32F1xx_HAL_Driver/Src/stm32f1xx_hal_adc_ex.c ****   /* Configuration of injected group                                          */
1093:Drivers/STM32F1xx_HAL_Driver/Src/stm32f1xx_hal_adc_ex.c ****   /* Parameters update conditioned to ADC state:                              */
1094:Drivers/STM32F1xx_HAL_Driver/Src/stm32f1xx_hal_adc_ex.c ****   /* Parameters that can be updated only when ADC is disabled:                */
1095:Drivers/STM32F1xx_HAL_Driver/Src/stm32f1xx_hal_adc_ex.c ****   /*  - external trigger to start conversion                                  */
1096:Drivers/STM32F1xx_HAL_Driver/Src/stm32f1xx_hal_adc_ex.c ****   /* Parameters update not conditioned to ADC state:                          */
1097:Drivers/STM32F1xx_HAL_Driver/Src/stm32f1xx_hal_adc_ex.c ****   /*  - Automatic injected conversion                                         */
1098:Drivers/STM32F1xx_HAL_Driver/Src/stm32f1xx_hal_adc_ex.c ****   /*  - Injected discontinuous mode                                           */
1099:Drivers/STM32F1xx_HAL_Driver/Src/stm32f1xx_hal_adc_ex.c ****   /* Note: In case of ADC already enabled, caution to not launch an unwanted  */
1100:Drivers/STM32F1xx_HAL_Driver/Src/stm32f1xx_hal_adc_ex.c ****   /*       conversion while modifying register CR2 by writing 1 to bit ADON.  */
ARM GAS  C:\Users\wyx12\AppData\Local\Temp\ccMKDd7z.s 			page 52


1101:Drivers/STM32F1xx_HAL_Driver/Src/stm32f1xx_hal_adc_ex.c ****   if (ADC_IS_ENABLE(hadc) == RESET)
 1644              		.loc 1 1101 3 is_stmt 1 view .LVU483
 1645              		.loc 1 1101 7 is_stmt 0 view .LVU484
 1646 0030 1C68     		ldr	r4, [r3]
 1647 0032 A268     		ldr	r2, [r4, #8]
 1648              		.loc 1 1101 6 view .LVU485
 1649 0034 12F0010F 		tst	r2, #1
 1650 0038 0AD1     		bne	.L149
1102:Drivers/STM32F1xx_HAL_Driver/Src/stm32f1xx_hal_adc_ex.c ****   {    
1103:Drivers/STM32F1xx_HAL_Driver/Src/stm32f1xx_hal_adc_ex.c ****     MODIFY_REG(hadc->Instance->CR2                                           ,
 1651              		.loc 1 1103 5 is_stmt 1 view .LVU486
 1652 003a A268     		ldr	r2, [r4, #8]
 1653 003c 22F4E042 		bic	r2, r2, #28672
 1654 0040 22F00102 		bic	r2, r2, #1
 1655 0044 794D     		ldr	r5, .L178
 1656 0046 AC42     		cmp	r4, r5
 1657 0048 65D0     		beq	.L170
 1658              		.loc 1 1103 5 is_stmt 0 discriminator 2 view .LVU487
 1659 004a 8D69     		ldr	r5, [r1, #24]
 1660              	.L151:
 1661              		.loc 1 1103 5 discriminator 8 view .LVU488
 1662 004c 2A43     		orrs	r2, r2, r5
 1663 004e A260     		str	r2, [r4, #8]
 1664              	.L149:
1104:Drivers/STM32F1xx_HAL_Driver/Src/stm32f1xx_hal_adc_ex.c ****                ADC_CR2_JEXTSEL |
1105:Drivers/STM32F1xx_HAL_Driver/Src/stm32f1xx_hal_adc_ex.c ****                ADC_CR2_ADON                                                  ,
1106:Drivers/STM32F1xx_HAL_Driver/Src/stm32f1xx_hal_adc_ex.c ****                ADC_CFGR_JEXTSEL(hadc, sConfigInjected->ExternalTrigInjecConv) );
1107:Drivers/STM32F1xx_HAL_Driver/Src/stm32f1xx_hal_adc_ex.c ****   }
1108:Drivers/STM32F1xx_HAL_Driver/Src/stm32f1xx_hal_adc_ex.c ****   
1109:Drivers/STM32F1xx_HAL_Driver/Src/stm32f1xx_hal_adc_ex.c ****   
1110:Drivers/STM32F1xx_HAL_Driver/Src/stm32f1xx_hal_adc_ex.c ****   /* Configuration of injected group                                          */
1111:Drivers/STM32F1xx_HAL_Driver/Src/stm32f1xx_hal_adc_ex.c ****   /*  - Automatic injected conversion                                         */
1112:Drivers/STM32F1xx_HAL_Driver/Src/stm32f1xx_hal_adc_ex.c ****   /*  - Injected discontinuous mode                                           */
1113:Drivers/STM32F1xx_HAL_Driver/Src/stm32f1xx_hal_adc_ex.c ****   
1114:Drivers/STM32F1xx_HAL_Driver/Src/stm32f1xx_hal_adc_ex.c ****     /* Automatic injected conversion can be enabled if injected group         */
1115:Drivers/STM32F1xx_HAL_Driver/Src/stm32f1xx_hal_adc_ex.c ****     /* external triggers are disabled.                                        */
1116:Drivers/STM32F1xx_HAL_Driver/Src/stm32f1xx_hal_adc_ex.c ****     if (sConfigInjected->AutoInjectedConv == ENABLE)
 1665              		.loc 1 1116 5 is_stmt 1 view .LVU489
 1666              		.loc 1 1116 24 is_stmt 0 view .LVU490
 1667 0050 4A7D     		ldrb	r2, [r1, #21]	@ zero_extendqisi2
 1668              		.loc 1 1116 8 view .LVU491
 1669 0052 012A     		cmp	r2, #1
 1670 0054 66D0     		beq	.L171
 1671              	.LVL100:
 1672              	.L152:
1117:Drivers/STM32F1xx_HAL_Driver/Src/stm32f1xx_hal_adc_ex.c ****     {
1118:Drivers/STM32F1xx_HAL_Driver/Src/stm32f1xx_hal_adc_ex.c ****       if (sConfigInjected->ExternalTrigInjecConv == ADC_INJECTED_SOFTWARE_START)
1119:Drivers/STM32F1xx_HAL_Driver/Src/stm32f1xx_hal_adc_ex.c ****       {
1120:Drivers/STM32F1xx_HAL_Driver/Src/stm32f1xx_hal_adc_ex.c ****         SET_BIT(hadc->Instance->CR1, ADC_CR1_JAUTO);
1121:Drivers/STM32F1xx_HAL_Driver/Src/stm32f1xx_hal_adc_ex.c ****       }
1122:Drivers/STM32F1xx_HAL_Driver/Src/stm32f1xx_hal_adc_ex.c ****       else
1123:Drivers/STM32F1xx_HAL_Driver/Src/stm32f1xx_hal_adc_ex.c ****       {
1124:Drivers/STM32F1xx_HAL_Driver/Src/stm32f1xx_hal_adc_ex.c ****         /* Update ADC state machine to error */
1125:Drivers/STM32F1xx_HAL_Driver/Src/stm32f1xx_hal_adc_ex.c ****         SET_BIT(hadc->State, HAL_ADC_STATE_ERROR_CONFIG);
1126:Drivers/STM32F1xx_HAL_Driver/Src/stm32f1xx_hal_adc_ex.c ****         
1127:Drivers/STM32F1xx_HAL_Driver/Src/stm32f1xx_hal_adc_ex.c ****         tmp_hal_status = HAL_ERROR;
1128:Drivers/STM32F1xx_HAL_Driver/Src/stm32f1xx_hal_adc_ex.c ****       }
ARM GAS  C:\Users\wyx12\AppData\Local\Temp\ccMKDd7z.s 			page 53


1129:Drivers/STM32F1xx_HAL_Driver/Src/stm32f1xx_hal_adc_ex.c ****     }
1130:Drivers/STM32F1xx_HAL_Driver/Src/stm32f1xx_hal_adc_ex.c ****     
1131:Drivers/STM32F1xx_HAL_Driver/Src/stm32f1xx_hal_adc_ex.c ****     /* Injected discontinuous can be enabled only if auto-injected mode is    */
1132:Drivers/STM32F1xx_HAL_Driver/Src/stm32f1xx_hal_adc_ex.c ****     /* disabled.                                                              */  
1133:Drivers/STM32F1xx_HAL_Driver/Src/stm32f1xx_hal_adc_ex.c ****     if (sConfigInjected->InjectedDiscontinuousConvMode == ENABLE)
 1673              		.loc 1 1133 5 is_stmt 1 view .LVU492
 1674              		.loc 1 1133 24 is_stmt 0 view .LVU493
 1675 0056 0A7D     		ldrb	r2, [r1, #20]	@ zero_extendqisi2
 1676              		.loc 1 1133 8 view .LVU494
 1677 0058 012A     		cmp	r2, #1
 1678 005a 73D0     		beq	.L172
 1679              	.LVL101:
 1680              	.L154:
1134:Drivers/STM32F1xx_HAL_Driver/Src/stm32f1xx_hal_adc_ex.c ****     {
1135:Drivers/STM32F1xx_HAL_Driver/Src/stm32f1xx_hal_adc_ex.c ****       if (sConfigInjected->AutoInjectedConv == DISABLE)
1136:Drivers/STM32F1xx_HAL_Driver/Src/stm32f1xx_hal_adc_ex.c ****       {
1137:Drivers/STM32F1xx_HAL_Driver/Src/stm32f1xx_hal_adc_ex.c ****         SET_BIT(hadc->Instance->CR1, ADC_CR1_JDISCEN);
1138:Drivers/STM32F1xx_HAL_Driver/Src/stm32f1xx_hal_adc_ex.c ****       } 
1139:Drivers/STM32F1xx_HAL_Driver/Src/stm32f1xx_hal_adc_ex.c ****       else
1140:Drivers/STM32F1xx_HAL_Driver/Src/stm32f1xx_hal_adc_ex.c ****       {
1141:Drivers/STM32F1xx_HAL_Driver/Src/stm32f1xx_hal_adc_ex.c ****         /* Update ADC state machine to error */
1142:Drivers/STM32F1xx_HAL_Driver/Src/stm32f1xx_hal_adc_ex.c ****         SET_BIT(hadc->State, HAL_ADC_STATE_ERROR_CONFIG);
1143:Drivers/STM32F1xx_HAL_Driver/Src/stm32f1xx_hal_adc_ex.c ****         
1144:Drivers/STM32F1xx_HAL_Driver/Src/stm32f1xx_hal_adc_ex.c ****         tmp_hal_status = HAL_ERROR;
1145:Drivers/STM32F1xx_HAL_Driver/Src/stm32f1xx_hal_adc_ex.c ****       }
1146:Drivers/STM32F1xx_HAL_Driver/Src/stm32f1xx_hal_adc_ex.c ****     }
1147:Drivers/STM32F1xx_HAL_Driver/Src/stm32f1xx_hal_adc_ex.c **** 
1148:Drivers/STM32F1xx_HAL_Driver/Src/stm32f1xx_hal_adc_ex.c **** 
1149:Drivers/STM32F1xx_HAL_Driver/Src/stm32f1xx_hal_adc_ex.c ****   /* InjectedChannel sampling time configuration */
1150:Drivers/STM32F1xx_HAL_Driver/Src/stm32f1xx_hal_adc_ex.c ****   /* For channels 10 to 17 */
1151:Drivers/STM32F1xx_HAL_Driver/Src/stm32f1xx_hal_adc_ex.c ****   if (sConfigInjected->InjectedChannel >= ADC_CHANNEL_10)
 1681              		.loc 1 1151 3 is_stmt 1 view .LVU495
 1682              		.loc 1 1151 22 is_stmt 0 view .LVU496
 1683 005c 0A68     		ldr	r2, [r1]
 1684              		.loc 1 1151 6 view .LVU497
 1685 005e 092A     		cmp	r2, #9
 1686 0060 7ED9     		bls	.L156
1152:Drivers/STM32F1xx_HAL_Driver/Src/stm32f1xx_hal_adc_ex.c ****   {
1153:Drivers/STM32F1xx_HAL_Driver/Src/stm32f1xx_hal_adc_ex.c ****     MODIFY_REG(hadc->Instance->SMPR1                                                             ,
 1687              		.loc 1 1153 5 is_stmt 1 view .LVU498
 1688 0062 1D68     		ldr	r5, [r3]
 1689 0064 EC68     		ldr	r4, [r5, #12]
 1690 0066 02EB4202 		add	r2, r2, r2, lsl #1
 1691 006a 1E3A     		subs	r2, r2, #30
 1692 006c 4FF0070C 		mov	ip, #7
 1693 0070 0CFA02FC 		lsl	ip, ip, r2
 1694 0074 24EA0C04 		bic	r4, r4, ip
 1695 0078 8E68     		ldr	r6, [r1, #8]
 1696 007a 06FA02F2 		lsl	r2, r6, r2
 1697 007e 2243     		orrs	r2, r2, r4
 1698 0080 EA60     		str	r2, [r5, #12]
 1699              	.L157:
1154:Drivers/STM32F1xx_HAL_Driver/Src/stm32f1xx_hal_adc_ex.c ****                ADC_SMPR1(ADC_SMPR1_SMP10, sConfigInjected->InjectedChannel)                      ,
1155:Drivers/STM32F1xx_HAL_Driver/Src/stm32f1xx_hal_adc_ex.c ****                ADC_SMPR1(sConfigInjected->InjectedSamplingTime, sConfigInjected->InjectedChannel) )
1156:Drivers/STM32F1xx_HAL_Driver/Src/stm32f1xx_hal_adc_ex.c ****   }
1157:Drivers/STM32F1xx_HAL_Driver/Src/stm32f1xx_hal_adc_ex.c ****   else /* For channels 0 to 9 */
1158:Drivers/STM32F1xx_HAL_Driver/Src/stm32f1xx_hal_adc_ex.c ****   {
ARM GAS  C:\Users\wyx12\AppData\Local\Temp\ccMKDd7z.s 			page 54


1159:Drivers/STM32F1xx_HAL_Driver/Src/stm32f1xx_hal_adc_ex.c ****     MODIFY_REG(hadc->Instance->SMPR2                                                             ,
1160:Drivers/STM32F1xx_HAL_Driver/Src/stm32f1xx_hal_adc_ex.c ****                ADC_SMPR2(ADC_SMPR2_SMP0, sConfigInjected->InjectedChannel)                       ,
1161:Drivers/STM32F1xx_HAL_Driver/Src/stm32f1xx_hal_adc_ex.c ****                ADC_SMPR2(sConfigInjected->InjectedSamplingTime, sConfigInjected->InjectedChannel) )
1162:Drivers/STM32F1xx_HAL_Driver/Src/stm32f1xx_hal_adc_ex.c ****   }
1163:Drivers/STM32F1xx_HAL_Driver/Src/stm32f1xx_hal_adc_ex.c ****   
1164:Drivers/STM32F1xx_HAL_Driver/Src/stm32f1xx_hal_adc_ex.c ****   /* If ADC1 InjectedChannel_16 or InjectedChannel_17 is selected, enable Temperature sensor  */
1165:Drivers/STM32F1xx_HAL_Driver/Src/stm32f1xx_hal_adc_ex.c ****   /* and VREFINT measurement path.                                            */
1166:Drivers/STM32F1xx_HAL_Driver/Src/stm32f1xx_hal_adc_ex.c ****   if ((sConfigInjected->InjectedChannel == ADC_CHANNEL_TEMPSENSOR) ||
 1700              		.loc 1 1166 3 view .LVU499
 1701              		.loc 1 1166 23 is_stmt 0 view .LVU500
 1702 0082 0A68     		ldr	r2, [r1]
 1703              		.loc 1 1166 68 view .LVU501
 1704 0084 103A     		subs	r2, r2, #16
 1705              		.loc 1 1166 6 view .LVU502
 1706 0086 012A     		cmp	r2, #1
 1707 0088 7AD9     		bls	.L173
 1708              	.L158:
1167:Drivers/STM32F1xx_HAL_Driver/Src/stm32f1xx_hal_adc_ex.c ****       (sConfigInjected->InjectedChannel == ADC_CHANNEL_VREFINT)      )
1168:Drivers/STM32F1xx_HAL_Driver/Src/stm32f1xx_hal_adc_ex.c ****   {
1169:Drivers/STM32F1xx_HAL_Driver/Src/stm32f1xx_hal_adc_ex.c ****     SET_BIT(hadc->Instance->CR2, ADC_CR2_TSVREFE);
1170:Drivers/STM32F1xx_HAL_Driver/Src/stm32f1xx_hal_adc_ex.c ****   }
1171:Drivers/STM32F1xx_HAL_Driver/Src/stm32f1xx_hal_adc_ex.c ****   
1172:Drivers/STM32F1xx_HAL_Driver/Src/stm32f1xx_hal_adc_ex.c ****   
1173:Drivers/STM32F1xx_HAL_Driver/Src/stm32f1xx_hal_adc_ex.c ****   /* Configure the offset: offset enable/disable, InjectedChannel, offset value */
1174:Drivers/STM32F1xx_HAL_Driver/Src/stm32f1xx_hal_adc_ex.c ****   switch(sConfigInjected->InjectedRank)
 1709              		.loc 1 1174 3 is_stmt 1 view .LVU503
 1710              		.loc 1 1174 25 is_stmt 0 view .LVU504
 1711 008a 4A68     		ldr	r2, [r1, #4]
 1712              		.loc 1 1174 3 view .LVU505
 1713 008c 022A     		cmp	r2, #2
 1714 008e 00F09080 		beq	.L159
 1715 0092 032A     		cmp	r2, #3
 1716 0094 00F09780 		beq	.L160
 1717 0098 012A     		cmp	r2, #1
 1718 009a 77D0     		beq	.L174
1175:Drivers/STM32F1xx_HAL_Driver/Src/stm32f1xx_hal_adc_ex.c ****   {
1176:Drivers/STM32F1xx_HAL_Driver/Src/stm32f1xx_hal_adc_ex.c ****     case 1:
1177:Drivers/STM32F1xx_HAL_Driver/Src/stm32f1xx_hal_adc_ex.c ****       /* Set injected channel 1 offset */
1178:Drivers/STM32F1xx_HAL_Driver/Src/stm32f1xx_hal_adc_ex.c ****       MODIFY_REG(hadc->Instance->JOFR1,
1179:Drivers/STM32F1xx_HAL_Driver/Src/stm32f1xx_hal_adc_ex.c ****                  ADC_JOFR1_JOFFSET1,
1180:Drivers/STM32F1xx_HAL_Driver/Src/stm32f1xx_hal_adc_ex.c ****                  sConfigInjected->InjectedOffset);
1181:Drivers/STM32F1xx_HAL_Driver/Src/stm32f1xx_hal_adc_ex.c ****       break;
1182:Drivers/STM32F1xx_HAL_Driver/Src/stm32f1xx_hal_adc_ex.c ****     case 2:
1183:Drivers/STM32F1xx_HAL_Driver/Src/stm32f1xx_hal_adc_ex.c ****       /* Set injected channel 2 offset */
1184:Drivers/STM32F1xx_HAL_Driver/Src/stm32f1xx_hal_adc_ex.c ****       MODIFY_REG(hadc->Instance->JOFR2,
1185:Drivers/STM32F1xx_HAL_Driver/Src/stm32f1xx_hal_adc_ex.c ****                  ADC_JOFR2_JOFFSET2,
1186:Drivers/STM32F1xx_HAL_Driver/Src/stm32f1xx_hal_adc_ex.c ****                  sConfigInjected->InjectedOffset);
1187:Drivers/STM32F1xx_HAL_Driver/Src/stm32f1xx_hal_adc_ex.c ****       break;
1188:Drivers/STM32F1xx_HAL_Driver/Src/stm32f1xx_hal_adc_ex.c ****     case 3:
1189:Drivers/STM32F1xx_HAL_Driver/Src/stm32f1xx_hal_adc_ex.c ****       /* Set injected channel 3 offset */
1190:Drivers/STM32F1xx_HAL_Driver/Src/stm32f1xx_hal_adc_ex.c ****       MODIFY_REG(hadc->Instance->JOFR3,
1191:Drivers/STM32F1xx_HAL_Driver/Src/stm32f1xx_hal_adc_ex.c ****                  ADC_JOFR3_JOFFSET3,
1192:Drivers/STM32F1xx_HAL_Driver/Src/stm32f1xx_hal_adc_ex.c ****                  sConfigInjected->InjectedOffset);
1193:Drivers/STM32F1xx_HAL_Driver/Src/stm32f1xx_hal_adc_ex.c ****       break;
1194:Drivers/STM32F1xx_HAL_Driver/Src/stm32f1xx_hal_adc_ex.c ****     case 4:
1195:Drivers/STM32F1xx_HAL_Driver/Src/stm32f1xx_hal_adc_ex.c ****     default:
1196:Drivers/STM32F1xx_HAL_Driver/Src/stm32f1xx_hal_adc_ex.c ****       MODIFY_REG(hadc->Instance->JOFR4,
ARM GAS  C:\Users\wyx12\AppData\Local\Temp\ccMKDd7z.s 			page 55


 1719              		.loc 1 1196 7 is_stmt 1 view .LVU506
 1720 009c 1C68     		ldr	r4, [r3]
 1721 009e 226A     		ldr	r2, [r4, #32]
 1722 00a0 22F47F62 		bic	r2, r2, #4080
 1723 00a4 22F00F02 		bic	r2, r2, #15
 1724 00a8 CD68     		ldr	r5, [r1, #12]
 1725 00aa 2A43     		orrs	r2, r2, r5
 1726 00ac 2262     		str	r2, [r4, #32]
1197:Drivers/STM32F1xx_HAL_Driver/Src/stm32f1xx_hal_adc_ex.c ****                  ADC_JOFR4_JOFFSET4,
1198:Drivers/STM32F1xx_HAL_Driver/Src/stm32f1xx_hal_adc_ex.c ****                  sConfigInjected->InjectedOffset);
1199:Drivers/STM32F1xx_HAL_Driver/Src/stm32f1xx_hal_adc_ex.c ****       break;
 1727              		.loc 1 1199 7 view .LVU507
 1728 00ae 76E0     		b	.L162
 1729              	.LVL102:
 1730              	.L169:
1037:Drivers/STM32F1xx_HAL_Driver/Src/stm32f1xx_hal_adc_ex.c ****                  ADC_JSQR_JL   |
 1731              		.loc 1 1037 7 view .LVU508
 1732 00b0 1868     		ldr	r0, [r3]
 1733 00b2 826B     		ldr	r2, [r0, #56]
 1734 00b4 920D     		lsrs	r2, r2, #22
 1735 00b6 9205     		lsls	r2, r2, #22
 1736 00b8 0C68     		ldr	r4, [r1]
 1737 00ba 42EAC432 		orr	r2, r2, r4, lsl #15
 1738 00be 8263     		str	r2, [r0, #56]
1002:Drivers/STM32F1xx_HAL_Driver/Src/stm32f1xx_hal_adc_ex.c ****   __IO uint32_t wait_loop_index = 0U;
 1739              		.loc 1 1002 21 is_stmt 0 view .LVU509
 1740 00c0 0020     		movs	r0, #0
 1741 00c2 B5E7     		b	.L147
 1742              	.L145:
1062:Drivers/STM32F1xx_HAL_Driver/Src/stm32f1xx_hal_adc_ex.c ****     {
 1743              		.loc 1 1062 5 is_stmt 1 view .LVU510
1062:Drivers/STM32F1xx_HAL_Driver/Src/stm32f1xx_hal_adc_ex.c ****     {
 1744              		.loc 1 1062 24 is_stmt 0 view .LVU511
 1745 00c4 4A68     		ldr	r2, [r1, #4]
1062:Drivers/STM32F1xx_HAL_Driver/Src/stm32f1xx_hal_adc_ex.c ****     {
 1746              		.loc 1 1062 57 view .LVU512
 1747 00c6 0869     		ldr	r0, [r1, #16]
1062:Drivers/STM32F1xx_HAL_Driver/Src/stm32f1xx_hal_adc_ex.c ****     {
 1748              		.loc 1 1062 8 view .LVU513
 1749 00c8 8242     		cmp	r2, r0
 1750 00ca 14D8     		bhi	.L148
1066:Drivers/STM32F1xx_HAL_Driver/Src/stm32f1xx_hal_adc_ex.c ****                  
 1751              		.loc 1 1066 7 is_stmt 1 view .LVU514
 1752 00cc 1E68     		ldr	r6, [r3]
 1753 00ce B46B     		ldr	r4, [r6, #56]
 1754 00d0 121A     		subs	r2, r2, r0
 1755 00d2 02EB8202 		add	r2, r2, r2, lsl #2
 1756 00d6 0F32     		adds	r2, r2, #15
 1757 00d8 1F25     		movs	r5, #31
 1758 00da 9540     		lsls	r5, r5, r2
 1759 00dc 45F44015 		orr	r5, r5, #3145728
 1760 00e0 24EA0504 		bic	r4, r4, r5
 1761 00e4 0138     		subs	r0, r0, #1
 1762 00e6 0D68     		ldr	r5, [r1]
 1763 00e8 9540     		lsls	r5, r5, r2
 1764 00ea 45EA0055 		orr	r5, r5, r0, lsl #20
 1765 00ee 2C43     		orrs	r4, r4, r5
ARM GAS  C:\Users\wyx12\AppData\Local\Temp\ccMKDd7z.s 			page 56


 1766 00f0 B463     		str	r4, [r6, #56]
1002:Drivers/STM32F1xx_HAL_Driver/Src/stm32f1xx_hal_adc_ex.c ****   __IO uint32_t wait_loop_index = 0U;
 1767              		.loc 1 1002 21 is_stmt 0 view .LVU515
 1768 00f2 0020     		movs	r0, #0
 1769 00f4 9CE7     		b	.L147
 1770              	.L148:
1081:Drivers/STM32F1xx_HAL_Driver/Src/stm32f1xx_hal_adc_ex.c ****                  
 1771              		.loc 1 1081 7 is_stmt 1 view .LVU516
 1772 00f6 1D68     		ldr	r5, [r3]
 1773 00f8 AC6B     		ldr	r4, [r5, #56]
 1774 00fa 121A     		subs	r2, r2, r0
 1775 00fc 02EB8202 		add	r2, r2, r2, lsl #2
 1776 0100 0F32     		adds	r2, r2, #15
 1777 0102 1F20     		movs	r0, #31
 1778 0104 00FA02F2 		lsl	r2, r0, r2
 1779 0108 42F44012 		orr	r2, r2, #3145728
 1780 010c 24EA0202 		bic	r2, r4, r2
 1781 0110 AA63     		str	r2, [r5, #56]
1002:Drivers/STM32F1xx_HAL_Driver/Src/stm32f1xx_hal_adc_ex.c ****   __IO uint32_t wait_loop_index = 0U;
 1782              		.loc 1 1002 21 is_stmt 0 view .LVU517
 1783 0112 0020     		movs	r0, #0
 1784 0114 8CE7     		b	.L147
 1785              	.LVL103:
 1786              	.L170:
1103:Drivers/STM32F1xx_HAL_Driver/Src/stm32f1xx_hal_adc_ex.c ****                ADC_CR2_JEXTSEL |
 1787              		.loc 1 1103 5 discriminator 1 view .LVU518
 1788 0116 8D69     		ldr	r5, [r1, #24]
 1789 0118 B5F5C04F 		cmp	r5, #24576
 1790 011c 96D1     		bne	.L151
1103:Drivers/STM32F1xx_HAL_Driver/Src/stm32f1xx_hal_adc_ex.c ****                ADC_CR2_JEXTSEL |
 1791              		.loc 1 1103 5 view .LVU519
 1792 011e 4FF48045 		mov	r5, #16384
 1793 0122 93E7     		b	.L151
 1794              	.L171:
1118:Drivers/STM32F1xx_HAL_Driver/Src/stm32f1xx_hal_adc_ex.c ****       {
 1795              		.loc 1 1118 7 is_stmt 1 view .LVU520
1118:Drivers/STM32F1xx_HAL_Driver/Src/stm32f1xx_hal_adc_ex.c ****       {
 1796              		.loc 1 1118 26 is_stmt 0 view .LVU521
 1797 0124 8C69     		ldr	r4, [r1, #24]
1118:Drivers/STM32F1xx_HAL_Driver/Src/stm32f1xx_hal_adc_ex.c ****       {
 1798              		.loc 1 1118 10 view .LVU522
 1799 0126 B4F5E04F 		cmp	r4, #28672
 1800 012a 05D0     		beq	.L175
1125:Drivers/STM32F1xx_HAL_Driver/Src/stm32f1xx_hal_adc_ex.c ****         
 1801              		.loc 1 1125 9 is_stmt 1 view .LVU523
 1802 012c 986A     		ldr	r0, [r3, #40]
 1803              	.LVL104:
1125:Drivers/STM32F1xx_HAL_Driver/Src/stm32f1xx_hal_adc_ex.c ****         
 1804              		.loc 1 1125 9 is_stmt 0 view .LVU524
 1805 012e 40F02000 		orr	r0, r0, #32
 1806 0132 9862     		str	r0, [r3, #40]
1127:Drivers/STM32F1xx_HAL_Driver/Src/stm32f1xx_hal_adc_ex.c ****       }
 1807              		.loc 1 1127 9 is_stmt 1 view .LVU525
 1808              	.LVL105:
1127:Drivers/STM32F1xx_HAL_Driver/Src/stm32f1xx_hal_adc_ex.c ****       }
 1809              		.loc 1 1127 24 is_stmt 0 view .LVU526
 1810 0134 1046     		mov	r0, r2
ARM GAS  C:\Users\wyx12\AppData\Local\Temp\ccMKDd7z.s 			page 57


 1811 0136 8EE7     		b	.L152
 1812              	.LVL106:
 1813              	.L175:
1120:Drivers/STM32F1xx_HAL_Driver/Src/stm32f1xx_hal_adc_ex.c ****       }
 1814              		.loc 1 1120 9 is_stmt 1 view .LVU527
 1815 0138 1C68     		ldr	r4, [r3]
 1816 013a 6268     		ldr	r2, [r4, #4]
 1817 013c 42F48062 		orr	r2, r2, #1024
 1818 0140 6260     		str	r2, [r4, #4]
 1819 0142 88E7     		b	.L152
 1820              	.L172:
1135:Drivers/STM32F1xx_HAL_Driver/Src/stm32f1xx_hal_adc_ex.c ****       {
 1821              		.loc 1 1135 7 view .LVU528
1135:Drivers/STM32F1xx_HAL_Driver/Src/stm32f1xx_hal_adc_ex.c ****       {
 1822              		.loc 1 1135 26 is_stmt 0 view .LVU529
 1823 0144 4C7D     		ldrb	r4, [r1, #21]	@ zero_extendqisi2
1135:Drivers/STM32F1xx_HAL_Driver/Src/stm32f1xx_hal_adc_ex.c ****       {
 1824              		.loc 1 1135 10 view .LVU530
 1825 0146 2CB9     		cbnz	r4, .L155
1137:Drivers/STM32F1xx_HAL_Driver/Src/stm32f1xx_hal_adc_ex.c ****       } 
 1826              		.loc 1 1137 9 is_stmt 1 view .LVU531
 1827 0148 1C68     		ldr	r4, [r3]
 1828 014a 6268     		ldr	r2, [r4, #4]
 1829 014c 42F48052 		orr	r2, r2, #4096
 1830 0150 6260     		str	r2, [r4, #4]
 1831 0152 83E7     		b	.L154
 1832              	.L155:
1142:Drivers/STM32F1xx_HAL_Driver/Src/stm32f1xx_hal_adc_ex.c ****         
 1833              		.loc 1 1142 9 view .LVU532
 1834 0154 986A     		ldr	r0, [r3, #40]
 1835              	.LVL107:
1142:Drivers/STM32F1xx_HAL_Driver/Src/stm32f1xx_hal_adc_ex.c ****         
 1836              		.loc 1 1142 9 is_stmt 0 view .LVU533
 1837 0156 40F02000 		orr	r0, r0, #32
 1838 015a 9862     		str	r0, [r3, #40]
1144:Drivers/STM32F1xx_HAL_Driver/Src/stm32f1xx_hal_adc_ex.c ****       }
 1839              		.loc 1 1144 9 is_stmt 1 view .LVU534
 1840              	.LVL108:
1144:Drivers/STM32F1xx_HAL_Driver/Src/stm32f1xx_hal_adc_ex.c ****       }
 1841              		.loc 1 1144 24 is_stmt 0 view .LVU535
 1842 015c 1046     		mov	r0, r2
 1843 015e 7DE7     		b	.L154
 1844              	.LVL109:
 1845              	.L156:
1159:Drivers/STM32F1xx_HAL_Driver/Src/stm32f1xx_hal_adc_ex.c ****                ADC_SMPR2(ADC_SMPR2_SMP0, sConfigInjected->InjectedChannel)                       ,
 1846              		.loc 1 1159 5 is_stmt 1 view .LVU536
 1847 0160 1D68     		ldr	r5, [r3]
 1848 0162 2C69     		ldr	r4, [r5, #16]
 1849 0164 02EB4202 		add	r2, r2, r2, lsl #1
 1850 0168 4FF0070C 		mov	ip, #7
 1851 016c 0CFA02FC 		lsl	ip, ip, r2
 1852 0170 24EA0C04 		bic	r4, r4, ip
 1853 0174 8E68     		ldr	r6, [r1, #8]
 1854 0176 06FA02F2 		lsl	r2, r6, r2
 1855 017a 2243     		orrs	r2, r2, r4
 1856 017c 2A61     		str	r2, [r5, #16]
 1857 017e 80E7     		b	.L157
ARM GAS  C:\Users\wyx12\AppData\Local\Temp\ccMKDd7z.s 			page 58


 1858              	.L173:
1169:Drivers/STM32F1xx_HAL_Driver/Src/stm32f1xx_hal_adc_ex.c ****   }
 1859              		.loc 1 1169 5 view .LVU537
 1860 0180 1C68     		ldr	r4, [r3]
 1861 0182 A268     		ldr	r2, [r4, #8]
 1862 0184 42F40002 		orr	r2, r2, #8388608
 1863 0188 A260     		str	r2, [r4, #8]
 1864 018a 7EE7     		b	.L158
 1865              	.L174:
1178:Drivers/STM32F1xx_HAL_Driver/Src/stm32f1xx_hal_adc_ex.c ****                  ADC_JOFR1_JOFFSET1,
 1866              		.loc 1 1178 7 view .LVU538
 1867 018c 1C68     		ldr	r4, [r3]
 1868 018e 6269     		ldr	r2, [r4, #20]
 1869 0190 22F47F62 		bic	r2, r2, #4080
 1870 0194 22F00F02 		bic	r2, r2, #15
 1871 0198 CD68     		ldr	r5, [r1, #12]
 1872 019a 2A43     		orrs	r2, r2, r5
 1873 019c 6261     		str	r2, [r4, #20]
1181:Drivers/STM32F1xx_HAL_Driver/Src/stm32f1xx_hal_adc_ex.c ****     case 2:
 1874              		.loc 1 1181 7 view .LVU539
 1875              	.L162:
1200:Drivers/STM32F1xx_HAL_Driver/Src/stm32f1xx_hal_adc_ex.c ****   }
1201:Drivers/STM32F1xx_HAL_Driver/Src/stm32f1xx_hal_adc_ex.c ****   
1202:Drivers/STM32F1xx_HAL_Driver/Src/stm32f1xx_hal_adc_ex.c ****   /* If ADC1 Channel_16 or Channel_17 is selected, enable Temperature sensor  */
1203:Drivers/STM32F1xx_HAL_Driver/Src/stm32f1xx_hal_adc_ex.c ****   /* and VREFINT measurement path.                                            */
1204:Drivers/STM32F1xx_HAL_Driver/Src/stm32f1xx_hal_adc_ex.c ****   if ((sConfigInjected->InjectedChannel == ADC_CHANNEL_TEMPSENSOR) ||
 1876              		.loc 1 1204 3 view .LVU540
 1877              		.loc 1 1204 23 is_stmt 0 view .LVU541
 1878 019e 0A68     		ldr	r2, [r1]
 1879              		.loc 1 1204 68 view .LVU542
 1880 01a0 103A     		subs	r2, r2, #16
 1881              		.loc 1 1204 6 view .LVU543
 1882 01a2 012A     		cmp	r2, #1
 1883 01a4 19D9     		bls	.L176
 1884              	.LVL110:
 1885              	.L163:
1205:Drivers/STM32F1xx_HAL_Driver/Src/stm32f1xx_hal_adc_ex.c ****       (sConfigInjected->InjectedChannel == ADC_CHANNEL_VREFINT)      )
1206:Drivers/STM32F1xx_HAL_Driver/Src/stm32f1xx_hal_adc_ex.c ****   {
1207:Drivers/STM32F1xx_HAL_Driver/Src/stm32f1xx_hal_adc_ex.c ****     /* For STM32F1 devices with several ADC: Only ADC1 can access internal    */
1208:Drivers/STM32F1xx_HAL_Driver/Src/stm32f1xx_hal_adc_ex.c ****     /* measurement channels (VrefInt/TempSensor). If these channels are       */
1209:Drivers/STM32F1xx_HAL_Driver/Src/stm32f1xx_hal_adc_ex.c ****     /* intended to be set on other ADC instances, an error is reported.       */
1210:Drivers/STM32F1xx_HAL_Driver/Src/stm32f1xx_hal_adc_ex.c ****     if (hadc->Instance == ADC1)
1211:Drivers/STM32F1xx_HAL_Driver/Src/stm32f1xx_hal_adc_ex.c ****     {
1212:Drivers/STM32F1xx_HAL_Driver/Src/stm32f1xx_hal_adc_ex.c ****       if (READ_BIT(hadc->Instance->CR2, ADC_CR2_TSVREFE) == RESET)
1213:Drivers/STM32F1xx_HAL_Driver/Src/stm32f1xx_hal_adc_ex.c ****       {
1214:Drivers/STM32F1xx_HAL_Driver/Src/stm32f1xx_hal_adc_ex.c ****         SET_BIT(hadc->Instance->CR2, ADC_CR2_TSVREFE);
1215:Drivers/STM32F1xx_HAL_Driver/Src/stm32f1xx_hal_adc_ex.c ****         
1216:Drivers/STM32F1xx_HAL_Driver/Src/stm32f1xx_hal_adc_ex.c ****         if ((sConfigInjected->InjectedChannel == ADC_CHANNEL_TEMPSENSOR))
1217:Drivers/STM32F1xx_HAL_Driver/Src/stm32f1xx_hal_adc_ex.c ****         {
1218:Drivers/STM32F1xx_HAL_Driver/Src/stm32f1xx_hal_adc_ex.c ****           /* Delay for temperature sensor stabilization time */
1219:Drivers/STM32F1xx_HAL_Driver/Src/stm32f1xx_hal_adc_ex.c ****           /* Compute number of CPU cycles to wait for */
1220:Drivers/STM32F1xx_HAL_Driver/Src/stm32f1xx_hal_adc_ex.c ****           wait_loop_index = (ADC_TEMPSENSOR_DELAY_US * (SystemCoreClock / 1000000U));
1221:Drivers/STM32F1xx_HAL_Driver/Src/stm32f1xx_hal_adc_ex.c ****           while(wait_loop_index != 0U)
1222:Drivers/STM32F1xx_HAL_Driver/Src/stm32f1xx_hal_adc_ex.c ****           {
1223:Drivers/STM32F1xx_HAL_Driver/Src/stm32f1xx_hal_adc_ex.c ****             wait_loop_index--;
1224:Drivers/STM32F1xx_HAL_Driver/Src/stm32f1xx_hal_adc_ex.c ****           }
1225:Drivers/STM32F1xx_HAL_Driver/Src/stm32f1xx_hal_adc_ex.c ****         }
ARM GAS  C:\Users\wyx12\AppData\Local\Temp\ccMKDd7z.s 			page 59


1226:Drivers/STM32F1xx_HAL_Driver/Src/stm32f1xx_hal_adc_ex.c ****       }
1227:Drivers/STM32F1xx_HAL_Driver/Src/stm32f1xx_hal_adc_ex.c ****     }
1228:Drivers/STM32F1xx_HAL_Driver/Src/stm32f1xx_hal_adc_ex.c ****     else
1229:Drivers/STM32F1xx_HAL_Driver/Src/stm32f1xx_hal_adc_ex.c ****     {
1230:Drivers/STM32F1xx_HAL_Driver/Src/stm32f1xx_hal_adc_ex.c ****       /* Update ADC state machine to error */
1231:Drivers/STM32F1xx_HAL_Driver/Src/stm32f1xx_hal_adc_ex.c ****       SET_BIT(hadc->State, HAL_ADC_STATE_ERROR_CONFIG);
1232:Drivers/STM32F1xx_HAL_Driver/Src/stm32f1xx_hal_adc_ex.c ****       
1233:Drivers/STM32F1xx_HAL_Driver/Src/stm32f1xx_hal_adc_ex.c ****       tmp_hal_status = HAL_ERROR;
1234:Drivers/STM32F1xx_HAL_Driver/Src/stm32f1xx_hal_adc_ex.c ****     }
1235:Drivers/STM32F1xx_HAL_Driver/Src/stm32f1xx_hal_adc_ex.c ****   }
1236:Drivers/STM32F1xx_HAL_Driver/Src/stm32f1xx_hal_adc_ex.c ****   
1237:Drivers/STM32F1xx_HAL_Driver/Src/stm32f1xx_hal_adc_ex.c ****   /* Process unlocked */
1238:Drivers/STM32F1xx_HAL_Driver/Src/stm32f1xx_hal_adc_ex.c ****   __HAL_UNLOCK(hadc);
 1886              		.loc 1 1238 3 is_stmt 1 view .LVU544
 1887              		.loc 1 1238 3 view .LVU545
 1888 01a6 0022     		movs	r2, #0
 1889 01a8 83F82420 		strb	r2, [r3, #36]
 1890              		.loc 1 1238 3 view .LVU546
1239:Drivers/STM32F1xx_HAL_Driver/Src/stm32f1xx_hal_adc_ex.c ****   
1240:Drivers/STM32F1xx_HAL_Driver/Src/stm32f1xx_hal_adc_ex.c ****   /* Return function status */
1241:Drivers/STM32F1xx_HAL_Driver/Src/stm32f1xx_hal_adc_ex.c ****   return tmp_hal_status;
 1891              		.loc 1 1241 3 view .LVU547
 1892              	.LVL111:
 1893              	.L144:
1242:Drivers/STM32F1xx_HAL_Driver/Src/stm32f1xx_hal_adc_ex.c **** }
 1894              		.loc 1 1242 1 is_stmt 0 view .LVU548
 1895 01ac 03B0     		add	sp, sp, #12
 1896              	.LCFI26:
 1897              		.cfi_remember_state
 1898              		.cfi_def_cfa_offset 12
 1899              		@ sp needed
 1900 01ae 70BC     		pop	{r4, r5, r6}
 1901              	.LCFI27:
 1902              		.cfi_restore 6
 1903              		.cfi_restore 5
 1904              		.cfi_restore 4
 1905              		.cfi_def_cfa_offset 0
 1906 01b0 7047     		bx	lr
 1907              	.LVL112:
 1908              	.L159:
 1909              	.LCFI28:
 1910              		.cfi_restore_state
1184:Drivers/STM32F1xx_HAL_Driver/Src/stm32f1xx_hal_adc_ex.c ****                  ADC_JOFR2_JOFFSET2,
 1911              		.loc 1 1184 7 is_stmt 1 view .LVU549
 1912 01b2 1C68     		ldr	r4, [r3]
 1913 01b4 A269     		ldr	r2, [r4, #24]
 1914 01b6 22F47F62 		bic	r2, r2, #4080
 1915 01ba 22F00F02 		bic	r2, r2, #15
 1916 01be CD68     		ldr	r5, [r1, #12]
 1917 01c0 2A43     		orrs	r2, r2, r5
 1918 01c2 A261     		str	r2, [r4, #24]
1187:Drivers/STM32F1xx_HAL_Driver/Src/stm32f1xx_hal_adc_ex.c ****     case 3:
 1919              		.loc 1 1187 7 view .LVU550
 1920 01c4 EBE7     		b	.L162
 1921              	.L160:
1190:Drivers/STM32F1xx_HAL_Driver/Src/stm32f1xx_hal_adc_ex.c ****                  ADC_JOFR3_JOFFSET3,
 1922              		.loc 1 1190 7 view .LVU551
ARM GAS  C:\Users\wyx12\AppData\Local\Temp\ccMKDd7z.s 			page 60


 1923 01c6 1C68     		ldr	r4, [r3]
 1924 01c8 E269     		ldr	r2, [r4, #28]
 1925 01ca 22F47F62 		bic	r2, r2, #4080
 1926 01ce 22F00F02 		bic	r2, r2, #15
 1927 01d2 CD68     		ldr	r5, [r1, #12]
 1928 01d4 2A43     		orrs	r2, r2, r5
 1929 01d6 E261     		str	r2, [r4, #28]
1193:Drivers/STM32F1xx_HAL_Driver/Src/stm32f1xx_hal_adc_ex.c ****     case 4:
 1930              		.loc 1 1193 7 view .LVU552
 1931 01d8 E1E7     		b	.L162
 1932              	.L176:
1210:Drivers/STM32F1xx_HAL_Driver/Src/stm32f1xx_hal_adc_ex.c ****     {
 1933              		.loc 1 1210 5 view .LVU553
1210:Drivers/STM32F1xx_HAL_Driver/Src/stm32f1xx_hal_adc_ex.c ****     {
 1934              		.loc 1 1210 13 is_stmt 0 view .LVU554
 1935 01da 1A68     		ldr	r2, [r3]
1210:Drivers/STM32F1xx_HAL_Driver/Src/stm32f1xx_hal_adc_ex.c ****     {
 1936              		.loc 1 1210 8 view .LVU555
 1937 01dc 144C     		ldr	r4, .L178+4
 1938 01de A242     		cmp	r2, r4
 1939 01e0 05D0     		beq	.L177
1231:Drivers/STM32F1xx_HAL_Driver/Src/stm32f1xx_hal_adc_ex.c ****       
 1940              		.loc 1 1231 7 is_stmt 1 view .LVU556
 1941 01e2 9A6A     		ldr	r2, [r3, #40]
 1942 01e4 42F02002 		orr	r2, r2, #32
 1943 01e8 9A62     		str	r2, [r3, #40]
1233:Drivers/STM32F1xx_HAL_Driver/Src/stm32f1xx_hal_adc_ex.c ****     }
 1944              		.loc 1 1233 7 view .LVU557
 1945              	.LVL113:
1233:Drivers/STM32F1xx_HAL_Driver/Src/stm32f1xx_hal_adc_ex.c ****     }
 1946              		.loc 1 1233 22 is_stmt 0 view .LVU558
 1947 01ea 0120     		movs	r0, #1
 1948 01ec DBE7     		b	.L163
 1949              	.LVL114:
 1950              	.L177:
1212:Drivers/STM32F1xx_HAL_Driver/Src/stm32f1xx_hal_adc_ex.c ****       {
 1951              		.loc 1 1212 7 is_stmt 1 view .LVU559
1212:Drivers/STM32F1xx_HAL_Driver/Src/stm32f1xx_hal_adc_ex.c ****       {
 1952              		.loc 1 1212 11 is_stmt 0 view .LVU560
 1953 01ee 9468     		ldr	r4, [r2, #8]
1212:Drivers/STM32F1xx_HAL_Driver/Src/stm32f1xx_hal_adc_ex.c ****       {
 1954              		.loc 1 1212 10 view .LVU561
 1955 01f0 14F4000F 		tst	r4, #8388608
 1956 01f4 D7D1     		bne	.L163
1214:Drivers/STM32F1xx_HAL_Driver/Src/stm32f1xx_hal_adc_ex.c ****         
 1957              		.loc 1 1214 9 is_stmt 1 view .LVU562
 1958 01f6 9468     		ldr	r4, [r2, #8]
 1959 01f8 44F40004 		orr	r4, r4, #8388608
 1960 01fc 9460     		str	r4, [r2, #8]
1216:Drivers/STM32F1xx_HAL_Driver/Src/stm32f1xx_hal_adc_ex.c ****         {
 1961              		.loc 1 1216 9 view .LVU563
1216:Drivers/STM32F1xx_HAL_Driver/Src/stm32f1xx_hal_adc_ex.c ****         {
 1962              		.loc 1 1216 29 is_stmt 0 view .LVU564
 1963 01fe 0A68     		ldr	r2, [r1]
1216:Drivers/STM32F1xx_HAL_Driver/Src/stm32f1xx_hal_adc_ex.c ****         {
 1964              		.loc 1 1216 12 view .LVU565
 1965 0200 102A     		cmp	r2, #16
ARM GAS  C:\Users\wyx12\AppData\Local\Temp\ccMKDd7z.s 			page 61


 1966 0202 D0D1     		bne	.L163
1220:Drivers/STM32F1xx_HAL_Driver/Src/stm32f1xx_hal_adc_ex.c ****           while(wait_loop_index != 0U)
 1967              		.loc 1 1220 11 is_stmt 1 view .LVU566
1220:Drivers/STM32F1xx_HAL_Driver/Src/stm32f1xx_hal_adc_ex.c ****           while(wait_loop_index != 0U)
 1968              		.loc 1 1220 73 is_stmt 0 view .LVU567
 1969 0204 0B4A     		ldr	r2, .L178+8
 1970 0206 1268     		ldr	r2, [r2]
 1971 0208 0B49     		ldr	r1, .L178+12
 1972              	.LVL115:
1220:Drivers/STM32F1xx_HAL_Driver/Src/stm32f1xx_hal_adc_ex.c ****           while(wait_loop_index != 0U)
 1973              		.loc 1 1220 73 view .LVU568
 1974 020a A1FB0212 		umull	r1, r2, r1, r2
 1975 020e 920C     		lsrs	r2, r2, #18
1220:Drivers/STM32F1xx_HAL_Driver/Src/stm32f1xx_hal_adc_ex.c ****           while(wait_loop_index != 0U)
 1976              		.loc 1 1220 54 view .LVU569
 1977 0210 02EB8202 		add	r2, r2, r2, lsl #2
 1978 0214 5200     		lsls	r2, r2, #1
1220:Drivers/STM32F1xx_HAL_Driver/Src/stm32f1xx_hal_adc_ex.c ****           while(wait_loop_index != 0U)
 1979              		.loc 1 1220 27 view .LVU570
 1980 0216 0192     		str	r2, [sp, #4]
1221:Drivers/STM32F1xx_HAL_Driver/Src/stm32f1xx_hal_adc_ex.c ****           {
 1981              		.loc 1 1221 11 is_stmt 1 view .LVU571
1221:Drivers/STM32F1xx_HAL_Driver/Src/stm32f1xx_hal_adc_ex.c ****           {
 1982              		.loc 1 1221 16 is_stmt 0 view .LVU572
 1983 0218 02E0     		b	.L165
 1984              	.L166:
1223:Drivers/STM32F1xx_HAL_Driver/Src/stm32f1xx_hal_adc_ex.c ****           }
 1985              		.loc 1 1223 13 is_stmt 1 view .LVU573
1223:Drivers/STM32F1xx_HAL_Driver/Src/stm32f1xx_hal_adc_ex.c ****           }
 1986              		.loc 1 1223 28 is_stmt 0 view .LVU574
 1987 021a 019A     		ldr	r2, [sp, #4]
 1988 021c 013A     		subs	r2, r2, #1
 1989 021e 0192     		str	r2, [sp, #4]
 1990              	.L165:
1221:Drivers/STM32F1xx_HAL_Driver/Src/stm32f1xx_hal_adc_ex.c ****           {
 1991              		.loc 1 1221 33 is_stmt 1 view .LVU575
 1992 0220 019A     		ldr	r2, [sp, #4]
 1993 0222 002A     		cmp	r2, #0
 1994 0224 F9D1     		bne	.L166
 1995 0226 BEE7     		b	.L163
 1996              	.LVL116:
 1997              	.L167:
1021:Drivers/STM32F1xx_HAL_Driver/Src/stm32f1xx_hal_adc_ex.c ****   
 1998              		.loc 1 1021 3 is_stmt 0 view .LVU576
 1999 0228 0220     		movs	r0, #2
 2000 022a BFE7     		b	.L144
 2001              	.L179:
 2002              		.align	2
 2003              	.L178:
 2004 022c 003C0140 		.word	1073822720
 2005 0230 00240140 		.word	1073816576
 2006 0234 00000000 		.word	SystemCoreClock
 2007 0238 83DE1B43 		.word	1125899907
 2008              		.cfi_endproc
 2009              	.LFE76:
 2011              		.section	.text.HAL_ADCEx_MultiModeConfigChannel,"ax",%progbits
 2012              		.align	1
ARM GAS  C:\Users\wyx12\AppData\Local\Temp\ccMKDd7z.s 			page 62


 2013              		.global	HAL_ADCEx_MultiModeConfigChannel
 2014              		.syntax unified
 2015              		.thumb
 2016              		.thumb_func
 2018              	HAL_ADCEx_MultiModeConfigChannel:
 2019              	.LVL117:
 2020              	.LFB77:
1243:Drivers/STM32F1xx_HAL_Driver/Src/stm32f1xx_hal_adc_ex.c **** 
1244:Drivers/STM32F1xx_HAL_Driver/Src/stm32f1xx_hal_adc_ex.c **** #if defined (STM32F103x6) || defined (STM32F103xB) || defined (STM32F105xC) || defined (STM32F107xC
1245:Drivers/STM32F1xx_HAL_Driver/Src/stm32f1xx_hal_adc_ex.c **** /**
1246:Drivers/STM32F1xx_HAL_Driver/Src/stm32f1xx_hal_adc_ex.c ****   * @brief  Enable ADC multimode and configure multimode parameters
1247:Drivers/STM32F1xx_HAL_Driver/Src/stm32f1xx_hal_adc_ex.c ****   * @note   Possibility to update parameters on the fly:
1248:Drivers/STM32F1xx_HAL_Driver/Src/stm32f1xx_hal_adc_ex.c ****   *         This function initializes multimode parameters, following  
1249:Drivers/STM32F1xx_HAL_Driver/Src/stm32f1xx_hal_adc_ex.c ****   *         calls to this function can be used to reconfigure some parameters 
1250:Drivers/STM32F1xx_HAL_Driver/Src/stm32f1xx_hal_adc_ex.c ****   *         of structure "ADC_MultiModeTypeDef" on the fly, without resetting 
1251:Drivers/STM32F1xx_HAL_Driver/Src/stm32f1xx_hal_adc_ex.c ****   *         the ADCs (both ADCs of the common group).
1252:Drivers/STM32F1xx_HAL_Driver/Src/stm32f1xx_hal_adc_ex.c ****   *         The setting of these parameters is conditioned to ADC state.
1253:Drivers/STM32F1xx_HAL_Driver/Src/stm32f1xx_hal_adc_ex.c ****   *         For parameters constraints, see comments of structure 
1254:Drivers/STM32F1xx_HAL_Driver/Src/stm32f1xx_hal_adc_ex.c ****   *         "ADC_MultiModeTypeDef".
1255:Drivers/STM32F1xx_HAL_Driver/Src/stm32f1xx_hal_adc_ex.c ****   * @note   To change back configuration from multimode to single mode, ADC must
1256:Drivers/STM32F1xx_HAL_Driver/Src/stm32f1xx_hal_adc_ex.c ****   *         be reset (using function HAL_ADC_Init() ).
1257:Drivers/STM32F1xx_HAL_Driver/Src/stm32f1xx_hal_adc_ex.c ****   * @param  hadc: ADC handle
1258:Drivers/STM32F1xx_HAL_Driver/Src/stm32f1xx_hal_adc_ex.c ****   * @param  multimode: Structure of ADC multimode configuration
1259:Drivers/STM32F1xx_HAL_Driver/Src/stm32f1xx_hal_adc_ex.c ****   * @retval HAL status
1260:Drivers/STM32F1xx_HAL_Driver/Src/stm32f1xx_hal_adc_ex.c ****   */
1261:Drivers/STM32F1xx_HAL_Driver/Src/stm32f1xx_hal_adc_ex.c **** HAL_StatusTypeDef HAL_ADCEx_MultiModeConfigChannel(ADC_HandleTypeDef* hadc, ADC_MultiModeTypeDef* m
1262:Drivers/STM32F1xx_HAL_Driver/Src/stm32f1xx_hal_adc_ex.c **** {
 2021              		.loc 1 1262 1 is_stmt 1 view -0
 2022              		.cfi_startproc
 2023              		@ args = 0, pretend = 0, frame = 48
 2024              		@ frame_needed = 0, uses_anonymous_args = 0
 2025              		.loc 1 1262 1 is_stmt 0 view .LVU578
 2026 0000 30B5     		push	{r4, r5, lr}
 2027              	.LCFI29:
 2028              		.cfi_def_cfa_offset 12
 2029              		.cfi_offset 4, -12
 2030              		.cfi_offset 5, -8
 2031              		.cfi_offset 14, -4
 2032 0002 8DB0     		sub	sp, sp, #52
 2033              	.LCFI30:
 2034              		.cfi_def_cfa_offset 64
 2035 0004 0446     		mov	r4, r0
 2036 0006 0D46     		mov	r5, r1
1263:Drivers/STM32F1xx_HAL_Driver/Src/stm32f1xx_hal_adc_ex.c ****   HAL_StatusTypeDef tmp_hal_status = HAL_OK;
 2037              		.loc 1 1263 3 is_stmt 1 view .LVU579
 2038              	.LVL118:
1264:Drivers/STM32F1xx_HAL_Driver/Src/stm32f1xx_hal_adc_ex.c ****   ADC_HandleTypeDef tmphadcSlave={0};
 2039              		.loc 1 1264 3 view .LVU580
 2040              		.loc 1 1264 21 is_stmt 0 view .LVU581
 2041 0008 3022     		movs	r2, #48
 2042 000a 0021     		movs	r1, #0
 2043              	.LVL119:
 2044              		.loc 1 1264 21 view .LVU582
 2045 000c 6846     		mov	r0, sp
 2046              	.LVL120:
 2047              		.loc 1 1264 21 view .LVU583
 2048 000e FFF7FEFF 		bl	memset
ARM GAS  C:\Users\wyx12\AppData\Local\Temp\ccMKDd7z.s 			page 63


 2049              	.LVL121:
1265:Drivers/STM32F1xx_HAL_Driver/Src/stm32f1xx_hal_adc_ex.c ****   
1266:Drivers/STM32F1xx_HAL_Driver/Src/stm32f1xx_hal_adc_ex.c ****   /* Check the parameters */
1267:Drivers/STM32F1xx_HAL_Driver/Src/stm32f1xx_hal_adc_ex.c ****   assert_param(IS_ADC_MULTIMODE_MASTER_INSTANCE(hadc->Instance));
 2050              		.loc 1 1267 3 is_stmt 1 view .LVU584
1268:Drivers/STM32F1xx_HAL_Driver/Src/stm32f1xx_hal_adc_ex.c ****   assert_param(IS_ADC_MODE(multimode->Mode));
 2051              		.loc 1 1268 3 view .LVU585
1269:Drivers/STM32F1xx_HAL_Driver/Src/stm32f1xx_hal_adc_ex.c ****   
1270:Drivers/STM32F1xx_HAL_Driver/Src/stm32f1xx_hal_adc_ex.c ****   /* Process locked */
1271:Drivers/STM32F1xx_HAL_Driver/Src/stm32f1xx_hal_adc_ex.c ****   __HAL_LOCK(hadc);
 2052              		.loc 1 1271 3 view .LVU586
 2053              		.loc 1 1271 3 view .LVU587
 2054 0012 94F82430 		ldrb	r3, [r4, #36]	@ zero_extendqisi2
 2055 0016 012B     		cmp	r3, #1
 2056 0018 23D0     		beq	.L184
 2057              		.loc 1 1271 3 discriminator 2 view .LVU588
 2058 001a 0123     		movs	r3, #1
 2059 001c 84F82430 		strb	r3, [r4, #36]
 2060              		.loc 1 1271 3 discriminator 2 view .LVU589
1272:Drivers/STM32F1xx_HAL_Driver/Src/stm32f1xx_hal_adc_ex.c ****   
1273:Drivers/STM32F1xx_HAL_Driver/Src/stm32f1xx_hal_adc_ex.c ****   /* Set a temporary handle of the ADC slave associated to the ADC master     */
1274:Drivers/STM32F1xx_HAL_Driver/Src/stm32f1xx_hal_adc_ex.c ****   ADC_MULTI_SLAVE(hadc, &tmphadcSlave);
 2061              		.loc 1 1274 3 discriminator 2 view .LVU590
 2062 0020 114B     		ldr	r3, .L187
 2063 0022 0093     		str	r3, [sp]
1275:Drivers/STM32F1xx_HAL_Driver/Src/stm32f1xx_hal_adc_ex.c ****   
1276:Drivers/STM32F1xx_HAL_Driver/Src/stm32f1xx_hal_adc_ex.c ****   /* Parameters update conditioned to ADC state:                              */
1277:Drivers/STM32F1xx_HAL_Driver/Src/stm32f1xx_hal_adc_ex.c ****   /* Parameters that can be updated when ADC is disabled or enabled without   */
1278:Drivers/STM32F1xx_HAL_Driver/Src/stm32f1xx_hal_adc_ex.c ****   /* conversion on going on regular group:                                    */
1279:Drivers/STM32F1xx_HAL_Driver/Src/stm32f1xx_hal_adc_ex.c ****   /*  - ADC master and ADC slave DMA configuration                            */
1280:Drivers/STM32F1xx_HAL_Driver/Src/stm32f1xx_hal_adc_ex.c ****   /* Parameters that can be updated only when ADC is disabled:                */
1281:Drivers/STM32F1xx_HAL_Driver/Src/stm32f1xx_hal_adc_ex.c ****   /*  - Multimode mode selection                                              */
1282:Drivers/STM32F1xx_HAL_Driver/Src/stm32f1xx_hal_adc_ex.c ****   /* To optimize code, all multimode settings can be set when both ADCs of    */
1283:Drivers/STM32F1xx_HAL_Driver/Src/stm32f1xx_hal_adc_ex.c ****   /* the common group are in state: disabled.                                 */
1284:Drivers/STM32F1xx_HAL_Driver/Src/stm32f1xx_hal_adc_ex.c ****   if ((ADC_IS_ENABLE(hadc) == RESET)                     &&
 2064              		.loc 1 1284 3 discriminator 2 view .LVU591
 2065              		.loc 1 1284 8 is_stmt 0 discriminator 2 view .LVU592
 2066 0024 2368     		ldr	r3, [r4]
 2067 0026 9A68     		ldr	r2, [r3, #8]
 2068              		.loc 1 1284 6 discriminator 2 view .LVU593
 2069 0028 12F0010F 		tst	r2, #1
 2070 002c 07D1     		bne	.L182
1285:Drivers/STM32F1xx_HAL_Driver/Src/stm32f1xx_hal_adc_ex.c ****       (ADC_IS_ENABLE(&tmphadcSlave) == RESET)            &&
 2071              		.loc 1 1285 8 discriminator 1 view .LVU594
 2072 002e 0E4A     		ldr	r2, .L187
 2073 0030 9268     		ldr	r2, [r2, #8]
1284:Drivers/STM32F1xx_HAL_Driver/Src/stm32f1xx_hal_adc_ex.c ****       (ADC_IS_ENABLE(&tmphadcSlave) == RESET)            &&
 2074              		.loc 1 1284 58 discriminator 1 view .LVU595
 2075 0032 12F0010F 		tst	r2, #1
 2076 0036 02D1     		bne	.L182
 2077              		.loc 1 1285 58 view .LVU596
 2078 0038 0C4A     		ldr	r2, .L187+4
 2079 003a 9342     		cmp	r3, r2
 2080 003c 09D0     		beq	.L186
 2081              	.L182:
1286:Drivers/STM32F1xx_HAL_Driver/Src/stm32f1xx_hal_adc_ex.c ****       (IS_ADC_MULTIMODE_MASTER_INSTANCE(hadc->Instance))   )
1287:Drivers/STM32F1xx_HAL_Driver/Src/stm32f1xx_hal_adc_ex.c ****   {
ARM GAS  C:\Users\wyx12\AppData\Local\Temp\ccMKDd7z.s 			page 64


1288:Drivers/STM32F1xx_HAL_Driver/Src/stm32f1xx_hal_adc_ex.c ****     MODIFY_REG(hadc->Instance->CR1,
1289:Drivers/STM32F1xx_HAL_Driver/Src/stm32f1xx_hal_adc_ex.c ****                ADC_CR1_DUALMOD    ,
1290:Drivers/STM32F1xx_HAL_Driver/Src/stm32f1xx_hal_adc_ex.c ****                multimode->Mode     );
1291:Drivers/STM32F1xx_HAL_Driver/Src/stm32f1xx_hal_adc_ex.c ****   }
1292:Drivers/STM32F1xx_HAL_Driver/Src/stm32f1xx_hal_adc_ex.c ****   /* If one of the ADC sharing the same common group is enabled, no update    */
1293:Drivers/STM32F1xx_HAL_Driver/Src/stm32f1xx_hal_adc_ex.c ****   /* could be done on neither of the multimode structure parameters.          */
1294:Drivers/STM32F1xx_HAL_Driver/Src/stm32f1xx_hal_adc_ex.c ****   else
1295:Drivers/STM32F1xx_HAL_Driver/Src/stm32f1xx_hal_adc_ex.c ****   {
1296:Drivers/STM32F1xx_HAL_Driver/Src/stm32f1xx_hal_adc_ex.c ****     /* Update ADC state machine to error */
1297:Drivers/STM32F1xx_HAL_Driver/Src/stm32f1xx_hal_adc_ex.c ****     SET_BIT(hadc->State, HAL_ADC_STATE_ERROR_CONFIG);
 2082              		.loc 1 1297 5 is_stmt 1 view .LVU597
 2083 003e A36A     		ldr	r3, [r4, #40]
 2084 0040 43F02003 		orr	r3, r3, #32
 2085 0044 A362     		str	r3, [r4, #40]
1298:Drivers/STM32F1xx_HAL_Driver/Src/stm32f1xx_hal_adc_ex.c ****     
1299:Drivers/STM32F1xx_HAL_Driver/Src/stm32f1xx_hal_adc_ex.c ****     tmp_hal_status = HAL_ERROR;
 2086              		.loc 1 1299 5 view .LVU598
 2087              	.LVL122:
 2088              		.loc 1 1299 20 is_stmt 0 view .LVU599
 2089 0046 0120     		movs	r0, #1
 2090              	.LVL123:
 2091              	.L183:
1300:Drivers/STM32F1xx_HAL_Driver/Src/stm32f1xx_hal_adc_ex.c ****   }
1301:Drivers/STM32F1xx_HAL_Driver/Src/stm32f1xx_hal_adc_ex.c ****     
1302:Drivers/STM32F1xx_HAL_Driver/Src/stm32f1xx_hal_adc_ex.c ****     
1303:Drivers/STM32F1xx_HAL_Driver/Src/stm32f1xx_hal_adc_ex.c ****   /* Process unlocked */
1304:Drivers/STM32F1xx_HAL_Driver/Src/stm32f1xx_hal_adc_ex.c ****   __HAL_UNLOCK(hadc);
 2092              		.loc 1 1304 3 is_stmt 1 view .LVU600
 2093              		.loc 1 1304 3 view .LVU601
 2094 0048 0023     		movs	r3, #0
 2095 004a 84F82430 		strb	r3, [r4, #36]
 2096              		.loc 1 1304 3 view .LVU602
1305:Drivers/STM32F1xx_HAL_Driver/Src/stm32f1xx_hal_adc_ex.c ****   
1306:Drivers/STM32F1xx_HAL_Driver/Src/stm32f1xx_hal_adc_ex.c ****   /* Return function status */
1307:Drivers/STM32F1xx_HAL_Driver/Src/stm32f1xx_hal_adc_ex.c ****   return tmp_hal_status;
 2097              		.loc 1 1307 3 view .LVU603
 2098              	.LVL124:
 2099              	.L181:
1308:Drivers/STM32F1xx_HAL_Driver/Src/stm32f1xx_hal_adc_ex.c **** } 
 2100              		.loc 1 1308 1 is_stmt 0 view .LVU604
 2101 004e 0DB0     		add	sp, sp, #52
 2102              	.LCFI31:
 2103              		.cfi_remember_state
 2104              		.cfi_def_cfa_offset 12
 2105              		@ sp needed
 2106 0050 30BD     		pop	{r4, r5, pc}
 2107              	.LVL125:
 2108              	.L186:
 2109              	.LCFI32:
 2110              		.cfi_restore_state
1288:Drivers/STM32F1xx_HAL_Driver/Src/stm32f1xx_hal_adc_ex.c ****                ADC_CR1_DUALMOD    ,
 2111              		.loc 1 1288 5 is_stmt 1 view .LVU605
 2112 0052 5A68     		ldr	r2, [r3, #4]
 2113 0054 22F47022 		bic	r2, r2, #983040
 2114 0058 2968     		ldr	r1, [r5]
 2115 005a 0A43     		orrs	r2, r2, r1
 2116 005c 5A60     		str	r2, [r3, #4]
ARM GAS  C:\Users\wyx12\AppData\Local\Temp\ccMKDd7z.s 			page 65


1263:Drivers/STM32F1xx_HAL_Driver/Src/stm32f1xx_hal_adc_ex.c ****   ADC_HandleTypeDef tmphadcSlave={0};
 2117              		.loc 1 1263 21 is_stmt 0 view .LVU606
 2118 005e 0020     		movs	r0, #0
1288:Drivers/STM32F1xx_HAL_Driver/Src/stm32f1xx_hal_adc_ex.c ****                ADC_CR1_DUALMOD    ,
 2119              		.loc 1 1288 5 view .LVU607
 2120 0060 F2E7     		b	.L183
 2121              	.L184:
1271:Drivers/STM32F1xx_HAL_Driver/Src/stm32f1xx_hal_adc_ex.c ****   
 2122              		.loc 1 1271 3 view .LVU608
 2123 0062 0220     		movs	r0, #2
 2124 0064 F3E7     		b	.L181
 2125              	.L188:
 2126 0066 00BF     		.align	2
 2127              	.L187:
 2128 0068 00280140 		.word	1073817600
 2129 006c 00240140 		.word	1073816576
 2130              		.cfi_endproc
 2131              	.LFE77:
 2133              		.text
 2134              	.Letext0:
 2135              		.file 2 "c:\\program files (x86)\\arm gnu toolchain arm-none-eabi\\12.2 rel1\\arm-none-eabi\\inclu
 2136              		.file 3 "c:\\program files (x86)\\arm gnu toolchain arm-none-eabi\\12.2 rel1\\arm-none-eabi\\inclu
 2137              		.file 4 "Drivers/CMSIS/Device/ST/STM32F1xx/Include/stm32f103xe.h"
 2138              		.file 5 "Drivers/CMSIS/Device/ST/STM32F1xx/Include/stm32f1xx.h"
 2139              		.file 6 "Drivers/STM32F1xx_HAL_Driver/Inc/stm32f1xx_hal_def.h"
 2140              		.file 7 "Drivers/STM32F1xx_HAL_Driver/Inc/stm32f1xx_hal_dma.h"
 2141              		.file 8 "Drivers/STM32F1xx_HAL_Driver/Inc/stm32f1xx_hal_adc.h"
 2142              		.file 9 "Drivers/STM32F1xx_HAL_Driver/Inc/stm32f1xx_hal_adc_ex.h"
 2143              		.file 10 "Drivers/STM32F1xx_HAL_Driver/Inc/stm32f1xx_hal_rcc_ex.h"
 2144              		.file 11 "Drivers/CMSIS/Device/ST/STM32F1xx/Include/system_stm32f1xx.h"
 2145              		.file 12 "Drivers/STM32F1xx_HAL_Driver/Inc/stm32f1xx_hal.h"
 2146              		.file 13 "<built-in>"
ARM GAS  C:\Users\wyx12\AppData\Local\Temp\ccMKDd7z.s 			page 66

