ARM GAS  C:\Users\wyx12\AppData\Local\Temp\cc7T4ubM.s 			page 1


   1              		.cpu cortex-m3
   2              		.arch armv7-m
   3              		.fpu softvfp
   4              		.eabi_attribute 20, 1
   5              		.eabi_attribute 21, 1
   6              		.eabi_attribute 23, 3
   7              		.eabi_attribute 24, 1
   8              		.eabi_attribute 25, 1
   9              		.eabi_attribute 26, 1
  10              		.eabi_attribute 30, 1
  11              		.eabi_attribute 34, 1
  12              		.eabi_attribute 18, 4
  13              		.file	"WindowCoeff.c"
  14              		.text
  15              	.Ltext0:
  16              		.cfi_sections	.debug_frame
  17              		.file 1 "Modules/fft/Src/WindowCoeff.c"
  18              		.global	__aeabi_fdiv
  19              		.section	.text.Init_WindowCoef1024,"ax",%progbits
  20              		.align	1
  21              		.global	Init_WindowCoef1024
  22              		.syntax unified
  23              		.thumb
  24              		.thumb_func
  26              	Init_WindowCoef1024:
  27              	.LFB0:
   1:Modules/fft/Src/WindowCoeff.c **** /*
   2:Modules/fft/Src/WindowCoeff.c ****  * @Author: MajorZpley
   3:Modules/fft/Src/WindowCoeff.c ****  * @Date: 2023-08-03 14:03:08
   4:Modules/fft/Src/WindowCoeff.c ****  * @LastEditTime: 2023-08-03 14:03:17
   5:Modules/fft/Src/WindowCoeff.c ****  * @LastEditors: your name
   6:Modules/fft/Src/WindowCoeff.c ****  * @Description:
   7:Modules/fft/Src/WindowCoeff.c ****  * @FilePath: \stm32f103rctx+sx1262+sound2\Modules\fft\Src\WindowCoeff.c
   8:Modules/fft/Src/WindowCoeff.c ****  * practice makes perfect!
   9:Modules/fft/Src/WindowCoeff.c ****  */
  10:Modules/fft/Src/WindowCoeff.c **** #include "WindowCoeff.h"
  11:Modules/fft/Src/WindowCoeff.c **** 
  12:Modules/fft/Src/WindowCoeff.c **** void Init_WindowCoef1024()
  13:Modules/fft/Src/WindowCoeff.c **** {
  28              		.loc 1 13 1 view -0
  29              		.cfi_startproc
  30              		@ args = 0, pretend = 0, frame = 0
  31              		@ frame_needed = 0, uses_anonymous_args = 0
  32 0000 38B5     		push	{r3, r4, r5, lr}
  33              	.LCFI0:
  34              		.cfi_def_cfa_offset 16
  35              		.cfi_offset 3, -16
  36              		.cfi_offset 4, -12
  37              		.cfi_offset 5, -8
  38              		.cfi_offset 14, -4
  14:Modules/fft/Src/WindowCoeff.c ****     int i = 0;
  39              		.loc 1 14 5 view .LVU1
  40              	.LVL0:
  15:Modules/fft/Src/WindowCoeff.c ****     for (i = 0; i < 1024; i++)
  41              		.loc 1 15 5 view .LVU2
  42              		.loc 1 15 12 is_stmt 0 view .LVU3
  43 0002 0024     		movs	r4, #0
ARM GAS  C:\Users\wyx12\AppData\Local\Temp\cc7T4ubM.s 			page 2


  44              		.loc 1 15 5 view .LVU4
  45 0004 08E0     		b	.L2
  46              	.LVL1:
  47              	.L3:
  16:Modules/fft/Src/WindowCoeff.c ****     {
  17:Modules/fft/Src/WindowCoeff.c ****         WindowCoef1024[i] = WindowCoef1024[i] / 1000;
  48              		.loc 1 17 9 is_stmt 1 discriminator 3 view .LVU5
  49              		.loc 1 17 43 is_stmt 0 discriminator 3 view .LVU6
  50 0006 064D     		ldr	r5, .L5
  51              		.loc 1 17 47 discriminator 3 view .LVU7
  52 0008 0649     		ldr	r1, .L5+4
  53 000a 55F82400 		ldr	r0, [r5, r4, lsl #2]	@ float
  54 000e FFF7FEFF 		bl	__aeabi_fdiv
  55              	.LVL2:
  56              		.loc 1 17 27 discriminator 3 view .LVU8
  57 0012 45F82400 		str	r0, [r5, r4, lsl #2]	@ float
  15:Modules/fft/Src/WindowCoeff.c ****     for (i = 0; i < 1024; i++)
  58              		.loc 1 15 28 is_stmt 1 discriminator 3 view .LVU9
  59 0016 0134     		adds	r4, r4, #1
  60              	.LVL3:
  61              	.L2:
  15:Modules/fft/Src/WindowCoeff.c ****     for (i = 0; i < 1024; i++)
  62              		.loc 1 15 19 discriminator 1 view .LVU10
  63 0018 B4F5806F 		cmp	r4, #1024
  64 001c F3DB     		blt	.L3
  18:Modules/fft/Src/WindowCoeff.c ****     }
  19:Modules/fft/Src/WindowCoeff.c **** }
  65              		.loc 1 19 1 is_stmt 0 view .LVU11
  66 001e 38BD     		pop	{r3, r4, r5, pc}
  67              	.LVL4:
  68              	.L6:
  69              		.loc 1 19 1 view .LVU12
  70              		.align	2
  71              	.L5:
  72 0020 00000000 		.word	WindowCoef1024
  73 0024 00007A44 		.word	1148846080
  74              		.cfi_endproc
  75              	.LFE0:
  77              		.global	WindowCoef1024
  78              		.section	.data.WindowCoef1024,"aw"
  79              		.align	2
  82              	WindowCoef1024:
  83 0000 75021A3C 		.word	1008337525
  84 0004 75021A3D 		.word	1025114741
  85 0008 560EAD3D 		.word	1034751574
  86 000c 3EE8193E 		.word	1041885246
  87 0010 696F703E 		.word	1047555945
  88 0014 711BAD3E 		.word	1051532145
  89 0018 569FEB3E 		.word	1055629142
  90 001c B1E1193F 		.word	1058660785
  91 0020 3CBD423F 		.word	1061338428
  92 0024 DC68703F 		.word	1064331484
  93 0028 006F913F 		.word	1066495744
  94 002c 9D11AD3F 		.word	1068306845
  95 0030 431CCB3F 		.word	1070275651
  96 0034 6688EB3F 		.word	1072400486
  97 0038 492E0740 		.word	1074212425
ARM GAS  C:\Users\wyx12\AppData\Local\Temp\cc7T4ubM.s 			page 3


  98 003c 1DC91940 		.word	1075431709
  99 0040 F6972D40 		.word	1076729846
 100 0044 31994240 		.word	1078106417
 101 0048 29CB5840 		.word	1079561001
 102 004c 832F7040 		.word	1081094019
 103 0050 20638440 		.word	1082417952
 104 0054 0B469140 		.word	1083262475
 105 0058 27C29E40 		.word	1084146215
 106 005c A1D6AC40 		.word	1085068961
 107 0060 7B83BB40 		.word	1086030715
 108 0064 E3C7CA40 		.word	1087031267
 109 0068 A9A4DA40 		.word	1088070825
 110 006c CE19EB40 		.word	1089149390
 111 0070 AF25FC40 		.word	1090266543
 112 0074 8FE40641 		.word	1090970767
 113 0078 0C021041 		.word	1091568140
 114 007c 516B1941 		.word	1092184913
 115 0080 F31F2341 		.word	1092820979
 116 0084 8A1F2D41 		.word	1093476234
 117 0088 E86A3741 		.word	1094150888
 118 008c 3B014241 		.word	1094844731
 119 0090 EBE24C41 		.word	1095557867
 120 0094 910F5841 		.word	1096290193
 121 0098 C2866341 		.word	1097041602
 122 009c E9486F41 		.word	1097812201
 123 00a0 9B557B41 		.word	1098601883
 124 00a4 6DD68341 		.word	1099159149
 125 00a8 52278A41 		.word	1099573074
 126 00ac 7E9D9041 		.word	1099996542
 127 00b0 86389741 		.word	1100429446
 128 00b4 A1F89D41 		.word	1100871841
 129 00b8 CCDDA441 		.word	1101323724
 130 00bc A1E7AB41 		.word	1101784993
 131 00c0 8716B341 		.word	1102255751
 132 00c4 166ABA41 		.word	1102735894
 133 00c8 4EE2C141 		.word	1103225422
 134 00cc 2E7FC941 		.word	1103724334
 135 00d0 8340D141 		.word	1104232579
 136 00d4 8126D941 		.word	1104750209
 137 00d8 BE30E141 		.word	1105277118
 138 00dc 3B5FE941 		.word	1105813307
 139 00e0 2DB2F141 		.word	1106358829
 140 00e4 F628FA41 		.word	1106913526
 141 00e8 FF610142 		.word	1107386879
 142 00ec 89C10542 		.word	1107673481
 143 00f0 FF320A42 		.word	1107964671
 144 00f4 60B60E42 		.word	1108260448
 145 00f8 924B1342 		.word	1108560786
 146 00fc B0F21742 		.word	1108865712
 147 0100 85AB1C42 		.word	1109175173
 148 0104 11762142 		.word	1109489169
 149 0108 54522642 		.word	1109807700
 150 010c 34402B42 		.word	1110130740
 151 0110 B13F3042 		.word	1110458289
 152 0114 B1503542 		.word	1110790321
 153 0118 33733A42 		.word	1111126835
 154 011c 38A73F42 		.word	1111467832
ARM GAS  C:\Users\wyx12\AppData\Local\Temp\cc7T4ubM.s 			page 4


 155 0120 8BEC4442 		.word	1111813259
 156 0124 47434A42 		.word	1112163143
 157 0128 36AB4F42 		.word	1112517430
 158 012c 74245542 		.word	1112876148
 159 0130 E6AE5A42 		.word	1113239270
 160 0134 724A6042 		.word	1113606770
 161 0138 17F76542 		.word	1113978647
 162 013c BCB46B42 		.word	1114354876
 163 0140 61837142 		.word	1114735457
 164 0144 05637742 		.word	1115120389
 165 0148 5B537D42 		.word	1115509595
 166 014c 4BAA8142 		.word	1115793995
 167 0150 4DB38442 		.word	1115992909
 168 0154 9CC48742 		.word	1116193948
 169 0158 42DE8A42 		.word	1116397122
 170 015c 27008E42 		.word	1116602407
 171 0160 582A9142 		.word	1116809816
 172 0164 C65C9442 		.word	1117019334
 173 0168 59979742 		.word	1117230937
 174 016c 1DDA9A42 		.word	1117444637
 175 0170 F7249E42 		.word	1117660407
 176 0174 F677A142 		.word	1117878262
 177 0178 FFD2A442 		.word	1118098175
 178 017c 1136A842 		.word	1118320145
 179 0180 2DA1AB42 		.word	1118544173
 180 0184 3914AF42 		.word	1118770233
 181 0188 358FB242 		.word	1118998325
 182 018c 1312B642 		.word	1119228435
 183 0190 D39CB942 		.word	1119460563
 184 0194 692FBD42 		.word	1119694697
 185 0198 D5C9C042 		.word	1119930837
 186 019c FB6BC442 		.word	1120168955
 187 01a0 DD15C842 		.word	1120409053
 188 01a4 6DC7CB42 		.word	1120651117
 189 01a8 AA80CF42 		.word	1120895146
 190 01ac 8941D342 		.word	1121141129
 191 01b0 FC09D742 		.word	1121389052
 192 01b4 F5D9DA42 		.word	1121638901
 193 01b8 83B1DE42 		.word	1121890691
 194 01bc 7D90E242 		.word	1122144381
 195 01c0 F076E642 		.word	1122399984
 196 01c4 C364EA42 		.word	1122657475
 197 01c8 F559EE42 		.word	1122916853
 198 01cc 7A56F242 		.word	1123178106
 199 01d0 445AF642 		.word	1123441220
 200 01d4 5365FA42 		.word	1123706195
 201 01d8 9A77FE42 		.word	1123973018
 202 01dc 86480143 		.word	1124157574
 203 01e0 D5580343 		.word	1124292821
 204 01e4 A56C0543 		.word	1124428965
 205 01e8 05840743 		.word	1124566021
 206 01ec E09E0943 		.word	1124703968
 207 01f0 3CBD0B43 		.word	1124842812
 208 01f4 0EDF0D43 		.word	1124982542
 209 01f8 54041043 		.word	1125123156
 210 01fc 012D1243 		.word	1125264641
 211 0200 17591443 		.word	1125406999
ARM GAS  C:\Users\wyx12\AppData\Local\Temp\cc7T4ubM.s 			page 5


 212 0204 93881643 		.word	1125550227
 213 0208 6BBB1843 		.word	1125694315
 214 020c 96F11A43 		.word	1125839254
 215 0210 162B1D43 		.word	1125985046
 216 0214 E3671F43 		.word	1126131683
 217 0218 F0A72143 		.word	1126279152
 218 021c 44EB2343 		.word	1126427460
 219 0220 D1312643 		.word	1126576593
 220 0224 997B2843 		.word	1126726553
 221 0228 8DC82A43 		.word	1126877325
 222 022c AE182D43 		.word	1127028910
 223 0230 F56B2F43 		.word	1127181301
 224 0234 54C23143 		.word	1127334484
 225 0238 D41B3443 		.word	1127488468
 226 023c 66783643 		.word	1127643238
 227 0240 03D83843 		.word	1127798787
 228 0244 AD3A3B43 		.word	1127955117
 229 0248 55A03D43 		.word	1128112213
 230 024c FC084043 		.word	1128270076
 231 0250 9C744243 		.word	1128428700
 232 0254 26E34443 		.word	1128588070
 233 0258 9C544743 		.word	1128748188
 234 025c F6C84943 		.word	1128909046
 235 0260 34404C43 		.word	1129070644
 236 0264 44BA4E43 		.word	1129232964
 237 0268 2B375143 		.word	1129396011
 238 026c DCB65343 		.word	1129559772
 239 0270 52395643 		.word	1129724242
 240 0274 8ABE5843 		.word	1129889418
 241 0278 7A465B43 		.word	1130055290
 242 027c 1AD15D43 		.word	1130221850
 243 0280 6A5E6043 		.word	1130389098
 244 0284 63EE6243 		.word	1130557027
 245 0288 F9806543 		.word	1130725625
 246 028c 2B166843 		.word	1130894891
 247 0290 F4AD6A43 		.word	1131064820
 248 0294 45486D43 		.word	1131235397
 249 0298 1FE56F43 		.word	1131406623
 250 029c 7B847243 		.word	1131578491
 251 02a0 4C267543 		.word	1131750988
 252 02a4 93CA7743 		.word	1131924115
 253 02a8 48717A43 		.word	1132097864
 254 02ac 651A7D43 		.word	1132272229
 255 02b0 E3C57F43 		.word	1132447203
 256 02b4 DB398143 		.word	1132542427
 257 02b8 EF918243 		.word	1132630511
 258 02bc 29EB8343 		.word	1132718889
 259 02c0 84458543 		.word	1132807556
 260 02c4 03A18643 		.word	1132896515
 261 02c8 9BFD8743 		.word	1132985755
 262 02cc 4A5B8943 		.word	1133075274
 263 02d0 13BA8A43 		.word	1133165075
 264 02d4 EC198C43 		.word	1133255148
 265 02d8 D17A8D43 		.word	1133345489
 266 02dc C3DC8E43 		.word	1133436099
 267 02e0 BE3F9043 		.word	1133526974
 268 02e4 BDA39143 		.word	1133618109
ARM GAS  C:\Users\wyx12\AppData\Local\Temp\cc7T4ubM.s 			page 6


 269 02e8 BB089343 		.word	1133709499
 270 02ec B86E9443 		.word	1133801144
 271 02f0 B2D59543 		.word	1133893042
 272 02f4 9F3D9743 		.word	1133985183
 273 02f8 81A69843 		.word	1134077569
 274 02fc 52109A43 		.word	1134170194
 275 0300 0F7B9B43 		.word	1134263055
 276 0304 B5E69C43 		.word	1134356149
 277 0308 40539E43 		.word	1134449472
 278 030c AEC09F43 		.word	1134543022
 279 0310 F72EA143 		.word	1134636791
 280 0314 1E9EA243 		.word	1134730782
 281 0318 1B0EA443 		.word	1134824987
 282 031c ED7EA543 		.word	1134919405
 283 0320 8DF0A643 		.word	1135014029
 284 0324 F862A843 		.word	1135108856
 285 0328 2FD6A943 		.word	1135203887
 286 032c 2D4AAB43 		.word	1135299117
 287 0330 E9BEAC43 		.word	1135394537
 288 0334 6434AE43 		.word	1135490148
 289 0338 9CAAAF43 		.word	1135585948
 290 033c 8921B143 		.word	1135681929
 291 0340 2A99B243 		.word	1135778090
 292 0344 7C11B443 		.word	1135874428
 293 0348 788AB543 		.word	1135970936
 294 034c 1F04B743 		.word	1136067615
 295 0350 6A7EB843 		.word	1136164458
 296 0354 55F9B943 		.word	1136261461
 297 0358 DD74BB43 		.word	1136358621
 298 035c 03F1BC43 		.word	1136455939
 299 0360 BC6DBE43 		.word	1136553404
 300 0364 09EBBF43 		.word	1136651017
 301 0368 E568C143 		.word	1136748773
 302 036c 4CE7C243 		.word	1136846668
 303 0370 3966C443 		.word	1136944697
 304 0374 ACE5C543 		.word	1137042860
 305 0378 9F65C743 		.word	1137141151
 306 037c 0EE6C843 		.word	1137239566
 307 0380 F766CA43 		.word	1137338103
 308 0384 55E8CB43 		.word	1137436757
 309 0388 276ACD43 		.word	1137535527
 310 038c 61ECCE43 		.word	1137634401
 311 0390 0A6FD043 		.word	1137733386
 312 0394 16F2D143 		.word	1137832470
 313 0398 8875D343 		.word	1137931656
 314 039c 55F9D443 		.word	1138030933
 315 03a0 817DD643 		.word	1138130305
 316 03a4 0202D843 		.word	1138229762
 317 03a8 D986D943 		.word	1138329305
 318 03ac FE0BDB43 		.word	1138428926
 319 03b0 6F91DC43 		.word	1138528623
 320 03b4 2817DE43 		.word	1138628392
 321 03b8 299DDF43 		.word	1138728233
 322 03bc 6823E143 		.word	1138828136
 323 03c0 E5A9E243 		.word	1138928101
 324 03c4 9A30E443 		.word	1139028122
 325 03c8 87B7E543 		.word	1139128199
ARM GAS  C:\Users\wyx12\AppData\Local\Temp\cc7T4ubM.s 			page 7


 326 03cc A53EE743 		.word	1139228325
 327 03d0 F0C5E843 		.word	1139328496
 328 03d4 674DEA43 		.word	1139428711
 329 03d8 05D5EB43 		.word	1139528965
 330 03dc C65CED43 		.word	1139629254
 331 03e0 A5E4EE43 		.word	1139729573
 332 03e4 9F6CF043 		.word	1139829919
 333 03e8 B3F4F143 		.word	1139930291
 334 03ec DA7CF343 		.word	1140030682
 335 03f0 0E05F543 		.word	1140131086
 336 03f4 508DF643 		.word	1140231504
 337 03f8 9B15F843 		.word	1140331931
 338 03fc ED9DF943 		.word	1140432365
 339 0400 3C26FB43 		.word	1140532796
 340 0404 8AAEFC43 		.word	1140633226
 341 0408 D336FE43 		.word	1140733651
 342 040c 0EBFFF43 		.word	1140834062
 343 0410 9EA30044 		.word	1140892574
 344 0414 AC670144 		.word	1140942764
 345 0418 B02B0244 		.word	1140992944
 346 041c A8EF0244 		.word	1141043112
 347 0420 8FB30344 		.word	1141093263
 348 0424 68770444 		.word	1141143400
 349 0428 2D3B0544 		.word	1141193517
 350 042c DCFE0544 		.word	1141243612
 351 0430 78C20644 		.word	1141293688
 352 0434 FA850744 		.word	1141343738
 353 0438 64490844 		.word	1141393764
 354 043c B10C0944 		.word	1141443761
 355 0440 E1CF0944 		.word	1141493729
 356 0444 F0920A44 		.word	1141543664
 357 0448 DE550B44 		.word	1141593566
 358 044c AA180C44 		.word	1141643434
 359 0450 4FDB0C44 		.word	1141693263
 360 0454 CE9D0D44 		.word	1141743054
 361 0458 24600E44 		.word	1141792804
 362 045c 4F220F44 		.word	1141842511
 363 0460 4FE40F44 		.word	1141892175
 364 0464 1EA61044 		.word	1141941790
 365 0468 BE671144 		.word	1141991358
 366 046c 2C291244 		.word	1142040876
 367 0470 65EA1244 		.word	1142090341
 368 0474 68AB1344 		.word	1142139752
 369 0478 346C1444 		.word	1142189108
 370 047c C62C1544 		.word	1142238406
 371 0480 1BED1544 		.word	1142287643
 372 0484 34AD1644 		.word	1142336820
 373 0488 0E6D1744 		.word	1142385934
 374 048c A72C1844 		.word	1142434983
 375 0490 FDEB1844 		.word	1142483965
 376 0494 0EAB1944 		.word	1142532878
 377 0498 D8691A44 		.word	1142581720
 378 049c 5A281B44 		.word	1142630490
 379 04a0 91E61B44 		.word	1142679185
 380 04a4 7DA41C44 		.word	1142727805
 381 04a8 1B621D44 		.word	1142776347
 382 04ac 691F1E44 		.word	1142824809
ARM GAS  C:\Users\wyx12\AppData\Local\Temp\cc7T4ubM.s 			page 8


 383 04b0 64DC1E44 		.word	1142873188
 384 04b4 0E991F44 		.word	1142921486
 385 04b8 62552044 		.word	1142969698
 386 04bc 5F112144 		.word	1143017823
 387 04c0 01CD2144 		.word	1143065857
 388 04c4 4B882244 		.word	1143113803
 389 04c8 38432344 		.word	1143161656
 390 04cc C6FD2344 		.word	1143209414
 391 04d0 F5B72444 		.word	1143257077
 392 04d4 C3712544 		.word	1143304643
 393 04d8 2B2B2644 		.word	1143352107
 394 04dc 30E42644 		.word	1143399472
 395 04e0 CB9C2744 		.word	1143446731
 396 04e4 00552844 		.word	1143493888
 397 04e8 C80C2944 		.word	1143540936
 398 04ec 24C42944 		.word	1143587876
 399 04f0 127B2A44 		.word	1143634706
 400 04f4 91312B44 		.word	1143681425
 401 04f8 9EE72B44 		.word	1143728030
 402 04fc 379D2C44 		.word	1143774519
 403 0500 5B522D44 		.word	1143820891
 404 0504 07072E44 		.word	1143867143
 405 0508 3BBB2E44 		.word	1143913275
 406 050c F56E2F44 		.word	1143959285
 407 0510 32223044 		.word	1144005170
 408 0514 F2D43044 		.word	1144050930
 409 0518 32873144 		.word	1144096562
 410 051c EF383244 		.word	1144142063
 411 0520 2BEA3244 		.word	1144187435
 412 0524 E19A3344 		.word	1144232673
 413 0528 124B3444 		.word	1144277778
 414 052c BAFA3444 		.word	1144322746
 415 0530 D8A93544 		.word	1144367576
 416 0534 6A583644 		.word	1144412266
 417 0538 70063744 		.word	1144456816
 418 053c E7B33744 		.word	1144501223
 419 0540 CD603844 		.word	1144545485
 420 0544 200D3944 		.word	1144589600
 421 0548 E0B83944 		.word	1144633568
 422 054c 0A643A44 		.word	1144677386
 423 0550 9E0E3B44 		.word	1144721054
 424 0554 98B83B44 		.word	1144764568
 425 0558 F7613C44 		.word	1144807927
 426 055c BC0A3D44 		.word	1144851132
 427 0560 E1B23D44 		.word	1144894177
 428 0564 685A3E44 		.word	1144937064
 429 0568 4E013F44 		.word	1144979790
 430 056c 91A73F44 		.word	1145022353
 431 0570 314D4044 		.word	1145064753
 432 0574 2AF24044 		.word	1145106986
 433 0578 7C964144 		.word	1145149052
 434 057c 253A4244 		.word	1145190949
 435 0580 24DD4244 		.word	1145232676
 436 0584 767F4344 		.word	1145274230
 437 0588 1B214444 		.word	1145315611
 438 058c 11C24444 		.word	1145356817
 439 0590 56624544 		.word	1145397846
ARM GAS  C:\Users\wyx12\AppData\Local\Temp\cc7T4ubM.s 			page 9


 440 0594 E8014644 		.word	1145438696
 441 0598 C8A04644 		.word	1145479368
 442 059c F23E4744 		.word	1145519858
 443 05a0 64DC4744 		.word	1145560164
 444 05a4 1F794844 		.word	1145600287
 445 05a8 20154944 		.word	1145640224
 446 05ac 66B04944 		.word	1145679974
 447 05b0 ED4A4A44 		.word	1145719533
 448 05b4 B8E44A44 		.word	1145758904
 449 05b8 C37D4B44 		.word	1145798083
 450 05bc 0B164C44 		.word	1145837067
 451 05c0 91AD4C44 		.word	1145875857
 452 05c4 54444D44 		.word	1145914452
 453 05c8 4FDA4D44 		.word	1145952847
 454 05cc 856F4E44 		.word	1145991045
 455 05d0 F1034F44 		.word	1146029041
 456 05d4 96974F44 		.word	1146066838
 457 05d8 6D2A5044 		.word	1146104429
 458 05dc 76BC5044 		.word	1146141814
 459 05e0 B44D5144 		.word	1146178996
 460 05e4 20DE5144 		.word	1146215968
 461 05e8 BC6D5244 		.word	1146252732
 462 05ec 85FC5244 		.word	1146289285
 463 05f0 7A8A5344 		.word	1146325626
 464 05f4 9C175444 		.word	1146361756
 465 05f8 E6A35444 		.word	1146397670
 466 05fc 572F5544 		.word	1146433367
 467 0600 F0B95544 		.word	1146468848
 468 0604 B0435644 		.word	1146504112
 469 0608 92CC5644 		.word	1146539154
 470 060c 98545744 		.word	1146573976
 471 0610 BEDB5744 		.word	1146608574
 472 0614 07625844 		.word	1146642951
 473 0618 6DE75844 		.word	1146677101
 474 061c F16B5944 		.word	1146711025
 475 0620 92EF5944 		.word	1146744722
 476 0624 4E725A44 		.word	1146778190
 477 0628 22F45A44 		.word	1146811426
 478 062c 12755B44 		.word	1146844434
 479 0630 17F55B44 		.word	1146877207
 480 0634 33745C44 		.word	1146909747
 481 0638 63F25C44 		.word	1146942051
 482 063c A86F5D44 		.word	1146974120
 483 0640 FEEB5D44 		.word	1147005950
 484 0644 66675E44 		.word	1147037542
 485 0648 DEE15E44 		.word	1147068894
 486 064c 665B5F44 		.word	1147100006
 487 0650 FBD35F44 		.word	1147130875
 488 0654 9E4B6044 		.word	1147161502
 489 0658 4BC26044 		.word	1147191883
 490 065c 02386144 		.word	1147222018
 491 0660 C3AC6144 		.word	1147251907
 492 0664 8B206244 		.word	1147281547
 493 0668 5B936244 		.word	1147310939
 494 066c 31056344 		.word	1147340081
 495 0670 0B766344 		.word	1147368971
 496 0674 EAE56344 		.word	1147397610
ARM GAS  C:\Users\wyx12\AppData\Local\Temp\cc7T4ubM.s 			page 10


 497 0678 CA546444 		.word	1147425994
 498 067c ADC26444 		.word	1147454125
 499 0680 8F2F6544 		.word	1147481999
 500 0684 719B6544 		.word	1147509617
 501 0688 51066644 		.word	1147536977
 502 068c 30706644 		.word	1147564080
 503 0690 09D96644 		.word	1147590921
 504 0694 DF406744 		.word	1147617503
 505 0698 B0A76744 		.word	1147643824
 506 069c 790D6844 		.word	1147669881
 507 06a0 3A726844 		.word	1147695674
 508 06a4 F4D56844 		.word	1147721204
 509 06a8 A2386944 		.word	1147746466
 510 06ac 479A6944 		.word	1147771463
 511 06b0 E1FA6944 		.word	1147796193
 512 06b4 6F5A6A44 		.word	1147820655
 513 06b8 EFB86A44 		.word	1147844847
 514 06bc 60166B44 		.word	1147868768
 515 06c0 C2726B44 		.word	1147892418
 516 06c4 16CE6B44 		.word	1147915798
 517 06c8 57286C44 		.word	1147938903
 518 06cc 88816C44 		.word	1147961736
 519 06d0 A5D96C44 		.word	1147984293
 520 06d4 AF306D44 		.word	1148006575
 521 06d8 A5866D44 		.word	1148028581
 522 06dc 85DB6D44 		.word	1148050309
 523 06e0 4F2F6E44 		.word	1148071759
 524 06e4 04826E44 		.word	1148092932
 525 06e8 A1D36E44 		.word	1148113825
 526 06ec 24246F44 		.word	1148134436
 527 06f0 8F736F44 		.word	1148154767
 528 06f4 E0C16F44 		.word	1148174816
 529 06f8 170F7044 		.word	1148194583
 530 06fc 335B7044 		.word	1148214067
 531 0700 32A67044 		.word	1148233266
 532 0704 14F07044 		.word	1148252180
 533 0708 D8387144 		.word	1148270808
 534 070c 80807144 		.word	1148289152
 535 0710 07C77144 		.word	1148307207
 536 0714 6F0C7244 		.word	1148324975
 537 0718 B8507244 		.word	1148342456
 538 071c DF937244 		.word	1148359647
 539 0720 E5D57244 		.word	1148376549
 540 0724 C7167344 		.word	1148393159
 541 0728 89567344 		.word	1148409481
 542 072c 25957344 		.word	1148425509
 543 0730 9ED27344 		.word	1148441246
 544 0734 F30E7444 		.word	1148456691
 545 0738 224A7444 		.word	1148471842
 546 073c 2C847444 		.word	1148486700
 547 0740 0EBD7444 		.word	1148501262
 548 0744 CBF47444 		.word	1148515531
 549 0748 612B7544 		.word	1148529505
 550 074c CD607544 		.word	1148543181
 551 0750 12957544 		.word	1148556562
 552 0754 2EC87544 		.word	1148569646
 553 0758 20FA7544 		.word	1148582432
ARM GAS  C:\Users\wyx12\AppData\Local\Temp\cc7T4ubM.s 			page 11


 554 075c E82A7644 		.word	1148594920
 555 0760 865A7644 		.word	1148607110
 556 0764 F9887644 		.word	1148619001
 557 0768 41B67644 		.word	1148630593
 558 076c 5DE27644 		.word	1148641885
 559 0770 4D0D7744 		.word	1148652877
 560 0774 11377744 		.word	1148663569
 561 0778 A65F7744 		.word	1148673958
 562 077c 0F877744 		.word	1148684047
 563 0780 4BAD7744 		.word	1148693835
 564 0784 58D27744 		.word	1148703320
 565 0788 37F67744 		.word	1148712503
 566 078c E7187844 		.word	1148721383
 567 0790 683A7844 		.word	1148729960
 568 0794 B85A7844 		.word	1148738232
 569 0798 DB797844 		.word	1148746203
 570 079c CC977844 		.word	1148753868
 571 07a0 8DB47844 		.word	1148761229
 572 07a4 1DD07844 		.word	1148768285
 573 07a8 7DEA7844 		.word	1148775037
 574 07ac AC037944 		.word	1148781484
 575 07b0 A91B7944 		.word	1148787625
 576 07b4 74327944 		.word	1148793460
 577 07b8 0D487944 		.word	1148798989
 578 07bc 765C7944 		.word	1148804214
 579 07c0 AB6F7944 		.word	1148809131
 580 07c4 AD817944 		.word	1148813741
 581 07c8 7D927944 		.word	1148818045
 582 07cc 1BA27944 		.word	1148822043
 583 07d0 86B07944 		.word	1148825734
 584 07d4 BEBD7944 		.word	1148829118
 585 07d8 C1C97944 		.word	1148832193
 586 07dc 92D47944 		.word	1148834962
 587 07e0 30DE7944 		.word	1148837424
 588 07e4 9BE67944 		.word	1148839579
 589 07e8 D1ED7944 		.word	1148841425
 590 07ec D4F37944 		.word	1148842964
 591 07f0 A2F87944 		.word	1148844194
 592 07f4 3EFC7944 		.word	1148845118
 593 07f8 A6FE7944 		.word	1148845734
 594 07fc DAFF7944 		.word	1148846042
 595 0800 DAFF7944 		.word	1148846042
 596 0804 A6FE7944 		.word	1148845734
 597 0808 3EFC7944 		.word	1148845118
 598 080c A2F87944 		.word	1148844194
 599 0810 D4F37944 		.word	1148842964
 600 0814 D1ED7944 		.word	1148841425
 601 0818 9BE67944 		.word	1148839579
 602 081c 30DE7944 		.word	1148837424
 603 0820 92D47944 		.word	1148834962
 604 0824 C1C97944 		.word	1148832193
 605 0828 BEBD7944 		.word	1148829118
 606 082c 86B07944 		.word	1148825734
 607 0830 1BA27944 		.word	1148822043
 608 0834 7D927944 		.word	1148818045
 609 0838 AD817944 		.word	1148813741
 610 083c AB6F7944 		.word	1148809131
ARM GAS  C:\Users\wyx12\AppData\Local\Temp\cc7T4ubM.s 			page 12


 611 0840 765C7944 		.word	1148804214
 612 0844 0D487944 		.word	1148798989
 613 0848 74327944 		.word	1148793460
 614 084c A91B7944 		.word	1148787625
 615 0850 AC037944 		.word	1148781484
 616 0854 7DEA7844 		.word	1148775037
 617 0858 1DD07844 		.word	1148768285
 618 085c 8DB47844 		.word	1148761229
 619 0860 CC977844 		.word	1148753868
 620 0864 DB797844 		.word	1148746203
 621 0868 B85A7844 		.word	1148738232
 622 086c 683A7844 		.word	1148729960
 623 0870 E7187844 		.word	1148721383
 624 0874 37F67744 		.word	1148712503
 625 0878 58D27744 		.word	1148703320
 626 087c 4BAD7744 		.word	1148693835
 627 0880 0F877744 		.word	1148684047
 628 0884 A65F7744 		.word	1148673958
 629 0888 11377744 		.word	1148663569
 630 088c 4D0D7744 		.word	1148652877
 631 0890 5DE27644 		.word	1148641885
 632 0894 41B67644 		.word	1148630593
 633 0898 F9887644 		.word	1148619001
 634 089c 865A7644 		.word	1148607110
 635 08a0 E82A7644 		.word	1148594920
 636 08a4 20FA7544 		.word	1148582432
 637 08a8 2EC87544 		.word	1148569646
 638 08ac 12957544 		.word	1148556562
 639 08b0 CD607544 		.word	1148543181
 640 08b4 612B7544 		.word	1148529505
 641 08b8 CBF47444 		.word	1148515531
 642 08bc 0EBD7444 		.word	1148501262
 643 08c0 2C847444 		.word	1148486700
 644 08c4 224A7444 		.word	1148471842
 645 08c8 F30E7444 		.word	1148456691
 646 08cc 9ED27344 		.word	1148441246
 647 08d0 25957344 		.word	1148425509
 648 08d4 89567344 		.word	1148409481
 649 08d8 C7167344 		.word	1148393159
 650 08dc E5D57244 		.word	1148376549
 651 08e0 DF937244 		.word	1148359647
 652 08e4 B8507244 		.word	1148342456
 653 08e8 6F0C7244 		.word	1148324975
 654 08ec 07C77144 		.word	1148307207
 655 08f0 80807144 		.word	1148289152
 656 08f4 D8387144 		.word	1148270808
 657 08f8 14F07044 		.word	1148252180
 658 08fc 32A67044 		.word	1148233266
 659 0900 335B7044 		.word	1148214067
 660 0904 170F7044 		.word	1148194583
 661 0908 E0C16F44 		.word	1148174816
 662 090c 8F736F44 		.word	1148154767
 663 0910 24246F44 		.word	1148134436
 664 0914 A1D36E44 		.word	1148113825
 665 0918 04826E44 		.word	1148092932
 666 091c 4F2F6E44 		.word	1148071759
 667 0920 85DB6D44 		.word	1148050309
ARM GAS  C:\Users\wyx12\AppData\Local\Temp\cc7T4ubM.s 			page 13


 668 0924 A5866D44 		.word	1148028581
 669 0928 AF306D44 		.word	1148006575
 670 092c A5D96C44 		.word	1147984293
 671 0930 88816C44 		.word	1147961736
 672 0934 57286C44 		.word	1147938903
 673 0938 16CE6B44 		.word	1147915798
 674 093c C2726B44 		.word	1147892418
 675 0940 60166B44 		.word	1147868768
 676 0944 EFB86A44 		.word	1147844847
 677 0948 6F5A6A44 		.word	1147820655
 678 094c E1FA6944 		.word	1147796193
 679 0950 479A6944 		.word	1147771463
 680 0954 A2386944 		.word	1147746466
 681 0958 F4D56844 		.word	1147721204
 682 095c 3A726844 		.word	1147695674
 683 0960 790D6844 		.word	1147669881
 684 0964 B0A76744 		.word	1147643824
 685 0968 DF406744 		.word	1147617503
 686 096c 09D96644 		.word	1147590921
 687 0970 30706644 		.word	1147564080
 688 0974 51066644 		.word	1147536977
 689 0978 719B6544 		.word	1147509617
 690 097c 8F2F6544 		.word	1147481999
 691 0980 ADC26444 		.word	1147454125
 692 0984 CA546444 		.word	1147425994
 693 0988 EAE56344 		.word	1147397610
 694 098c 0B766344 		.word	1147368971
 695 0990 31056344 		.word	1147340081
 696 0994 5B936244 		.word	1147310939
 697 0998 8B206244 		.word	1147281547
 698 099c C3AC6144 		.word	1147251907
 699 09a0 02386144 		.word	1147222018
 700 09a4 4BC26044 		.word	1147191883
 701 09a8 9E4B6044 		.word	1147161502
 702 09ac FBD35F44 		.word	1147130875
 703 09b0 665B5F44 		.word	1147100006
 704 09b4 DEE15E44 		.word	1147068894
 705 09b8 66675E44 		.word	1147037542
 706 09bc FEEB5D44 		.word	1147005950
 707 09c0 A86F5D44 		.word	1146974120
 708 09c4 63F25C44 		.word	1146942051
 709 09c8 33745C44 		.word	1146909747
 710 09cc 17F55B44 		.word	1146877207
 711 09d0 12755B44 		.word	1146844434
 712 09d4 22F45A44 		.word	1146811426
 713 09d8 4E725A44 		.word	1146778190
 714 09dc 92EF5944 		.word	1146744722
 715 09e0 F16B5944 		.word	1146711025
 716 09e4 6DE75844 		.word	1146677101
 717 09e8 07625844 		.word	1146642951
 718 09ec BEDB5744 		.word	1146608574
 719 09f0 98545744 		.word	1146573976
 720 09f4 92CC5644 		.word	1146539154
 721 09f8 B0435644 		.word	1146504112
 722 09fc F0B95544 		.word	1146468848
 723 0a00 572F5544 		.word	1146433367
 724 0a04 E6A35444 		.word	1146397670
ARM GAS  C:\Users\wyx12\AppData\Local\Temp\cc7T4ubM.s 			page 14


 725 0a08 9C175444 		.word	1146361756
 726 0a0c 7A8A5344 		.word	1146325626
 727 0a10 85FC5244 		.word	1146289285
 728 0a14 BC6D5244 		.word	1146252732
 729 0a18 20DE5144 		.word	1146215968
 730 0a1c B44D5144 		.word	1146178996
 731 0a20 76BC5044 		.word	1146141814
 732 0a24 6D2A5044 		.word	1146104429
 733 0a28 96974F44 		.word	1146066838
 734 0a2c F1034F44 		.word	1146029041
 735 0a30 856F4E44 		.word	1145991045
 736 0a34 4FDA4D44 		.word	1145952847
 737 0a38 54444D44 		.word	1145914452
 738 0a3c 91AD4C44 		.word	1145875857
 739 0a40 0B164C44 		.word	1145837067
 740 0a44 C37D4B44 		.word	1145798083
 741 0a48 B8E44A44 		.word	1145758904
 742 0a4c ED4A4A44 		.word	1145719533
 743 0a50 66B04944 		.word	1145679974
 744 0a54 20154944 		.word	1145640224
 745 0a58 1F794844 		.word	1145600287
 746 0a5c 64DC4744 		.word	1145560164
 747 0a60 F23E4744 		.word	1145519858
 748 0a64 C8A04644 		.word	1145479368
 749 0a68 E8014644 		.word	1145438696
 750 0a6c 56624544 		.word	1145397846
 751 0a70 11C24444 		.word	1145356817
 752 0a74 1B214444 		.word	1145315611
 753 0a78 767F4344 		.word	1145274230
 754 0a7c 24DD4244 		.word	1145232676
 755 0a80 253A4244 		.word	1145190949
 756 0a84 7C964144 		.word	1145149052
 757 0a88 2AF24044 		.word	1145106986
 758 0a8c 314D4044 		.word	1145064753
 759 0a90 91A73F44 		.word	1145022353
 760 0a94 4E013F44 		.word	1144979790
 761 0a98 685A3E44 		.word	1144937064
 762 0a9c E1B23D44 		.word	1144894177
 763 0aa0 BC0A3D44 		.word	1144851132
 764 0aa4 F7613C44 		.word	1144807927
 765 0aa8 98B83B44 		.word	1144764568
 766 0aac 9E0E3B44 		.word	1144721054
 767 0ab0 0A643A44 		.word	1144677386
 768 0ab4 E0B83944 		.word	1144633568
 769 0ab8 200D3944 		.word	1144589600
 770 0abc CD603844 		.word	1144545485
 771 0ac0 E7B33744 		.word	1144501223
 772 0ac4 70063744 		.word	1144456816
 773 0ac8 6A583644 		.word	1144412266
 774 0acc D8A93544 		.word	1144367576
 775 0ad0 BAFA3444 		.word	1144322746
 776 0ad4 124B3444 		.word	1144277778
 777 0ad8 E19A3344 		.word	1144232673
 778 0adc 2BEA3244 		.word	1144187435
 779 0ae0 EF383244 		.word	1144142063
 780 0ae4 32873144 		.word	1144096562
 781 0ae8 F2D43044 		.word	1144050930
ARM GAS  C:\Users\wyx12\AppData\Local\Temp\cc7T4ubM.s 			page 15


 782 0aec 32223044 		.word	1144005170
 783 0af0 F56E2F44 		.word	1143959285
 784 0af4 3BBB2E44 		.word	1143913275
 785 0af8 07072E44 		.word	1143867143
 786 0afc 5B522D44 		.word	1143820891
 787 0b00 379D2C44 		.word	1143774519
 788 0b04 9EE72B44 		.word	1143728030
 789 0b08 91312B44 		.word	1143681425
 790 0b0c 127B2A44 		.word	1143634706
 791 0b10 24C42944 		.word	1143587876
 792 0b14 C80C2944 		.word	1143540936
 793 0b18 00552844 		.word	1143493888
 794 0b1c CB9C2744 		.word	1143446731
 795 0b20 30E42644 		.word	1143399472
 796 0b24 2B2B2644 		.word	1143352107
 797 0b28 C3712544 		.word	1143304643
 798 0b2c F5B72444 		.word	1143257077
 799 0b30 C6FD2344 		.word	1143209414
 800 0b34 38432344 		.word	1143161656
 801 0b38 4B882244 		.word	1143113803
 802 0b3c 01CD2144 		.word	1143065857
 803 0b40 5F112144 		.word	1143017823
 804 0b44 62552044 		.word	1142969698
 805 0b48 0E991F44 		.word	1142921486
 806 0b4c 64DC1E44 		.word	1142873188
 807 0b50 691F1E44 		.word	1142824809
 808 0b54 1B621D44 		.word	1142776347
 809 0b58 7DA41C44 		.word	1142727805
 810 0b5c 91E61B44 		.word	1142679185
 811 0b60 5A281B44 		.word	1142630490
 812 0b64 D8691A44 		.word	1142581720
 813 0b68 0EAB1944 		.word	1142532878
 814 0b6c FDEB1844 		.word	1142483965
 815 0b70 A72C1844 		.word	1142434983
 816 0b74 0E6D1744 		.word	1142385934
 817 0b78 34AD1644 		.word	1142336820
 818 0b7c 1BED1544 		.word	1142287643
 819 0b80 C62C1544 		.word	1142238406
 820 0b84 346C1444 		.word	1142189108
 821 0b88 68AB1344 		.word	1142139752
 822 0b8c 65EA1244 		.word	1142090341
 823 0b90 2C291244 		.word	1142040876
 824 0b94 BE671144 		.word	1141991358
 825 0b98 1EA61044 		.word	1141941790
 826 0b9c 4FE40F44 		.word	1141892175
 827 0ba0 4F220F44 		.word	1141842511
 828 0ba4 24600E44 		.word	1141792804
 829 0ba8 CE9D0D44 		.word	1141743054
 830 0bac 4FDB0C44 		.word	1141693263
 831 0bb0 AA180C44 		.word	1141643434
 832 0bb4 DE550B44 		.word	1141593566
 833 0bb8 F0920A44 		.word	1141543664
 834 0bbc E1CF0944 		.word	1141493729
 835 0bc0 B10C0944 		.word	1141443761
 836 0bc4 64490844 		.word	1141393764
 837 0bc8 FA850744 		.word	1141343738
 838 0bcc 78C20644 		.word	1141293688
ARM GAS  C:\Users\wyx12\AppData\Local\Temp\cc7T4ubM.s 			page 16


 839 0bd0 DCFE0544 		.word	1141243612
 840 0bd4 2D3B0544 		.word	1141193517
 841 0bd8 68770444 		.word	1141143400
 842 0bdc 8FB30344 		.word	1141093263
 843 0be0 A8EF0244 		.word	1141043112
 844 0be4 B02B0244 		.word	1140992944
 845 0be8 AC670144 		.word	1140942764
 846 0bec 9EA30044 		.word	1140892574
 847 0bf0 0EBFFF43 		.word	1140834062
 848 0bf4 D336FE43 		.word	1140733651
 849 0bf8 8AAEFC43 		.word	1140633226
 850 0bfc 3C26FB43 		.word	1140532796
 851 0c00 ED9DF943 		.word	1140432365
 852 0c04 9B15F843 		.word	1140331931
 853 0c08 508DF643 		.word	1140231504
 854 0c0c 0E05F543 		.word	1140131086
 855 0c10 DA7CF343 		.word	1140030682
 856 0c14 B3F4F143 		.word	1139930291
 857 0c18 9F6CF043 		.word	1139829919
 858 0c1c A5E4EE43 		.word	1139729573
 859 0c20 C65CED43 		.word	1139629254
 860 0c24 05D5EB43 		.word	1139528965
 861 0c28 674DEA43 		.word	1139428711
 862 0c2c F0C5E843 		.word	1139328496
 863 0c30 A53EE743 		.word	1139228325
 864 0c34 87B7E543 		.word	1139128199
 865 0c38 9A30E443 		.word	1139028122
 866 0c3c E5A9E243 		.word	1138928101
 867 0c40 6823E143 		.word	1138828136
 868 0c44 299DDF43 		.word	1138728233
 869 0c48 2817DE43 		.word	1138628392
 870 0c4c 6F91DC43 		.word	1138528623
 871 0c50 FE0BDB43 		.word	1138428926
 872 0c54 D986D943 		.word	1138329305
 873 0c58 0202D843 		.word	1138229762
 874 0c5c 817DD643 		.word	1138130305
 875 0c60 55F9D443 		.word	1138030933
 876 0c64 8875D343 		.word	1137931656
 877 0c68 16F2D143 		.word	1137832470
 878 0c6c 0A6FD043 		.word	1137733386
 879 0c70 61ECCE43 		.word	1137634401
 880 0c74 276ACD43 		.word	1137535527
 881 0c78 55E8CB43 		.word	1137436757
 882 0c7c F766CA43 		.word	1137338103
 883 0c80 0EE6C843 		.word	1137239566
 884 0c84 9F65C743 		.word	1137141151
 885 0c88 ACE5C543 		.word	1137042860
 886 0c8c 3966C443 		.word	1136944697
 887 0c90 4CE7C243 		.word	1136846668
 888 0c94 E568C143 		.word	1136748773
 889 0c98 09EBBF43 		.word	1136651017
 890 0c9c BC6DBE43 		.word	1136553404
 891 0ca0 03F1BC43 		.word	1136455939
 892 0ca4 DD74BB43 		.word	1136358621
 893 0ca8 55F9B943 		.word	1136261461
 894 0cac 6A7EB843 		.word	1136164458
 895 0cb0 1F04B743 		.word	1136067615
ARM GAS  C:\Users\wyx12\AppData\Local\Temp\cc7T4ubM.s 			page 17


 896 0cb4 788AB543 		.word	1135970936
 897 0cb8 7C11B443 		.word	1135874428
 898 0cbc 2A99B243 		.word	1135778090
 899 0cc0 8921B143 		.word	1135681929
 900 0cc4 9CAAAF43 		.word	1135585948
 901 0cc8 6434AE43 		.word	1135490148
 902 0ccc E9BEAC43 		.word	1135394537
 903 0cd0 2D4AAB43 		.word	1135299117
 904 0cd4 2FD6A943 		.word	1135203887
 905 0cd8 F862A843 		.word	1135108856
 906 0cdc 8DF0A643 		.word	1135014029
 907 0ce0 ED7EA543 		.word	1134919405
 908 0ce4 1B0EA443 		.word	1134824987
 909 0ce8 1E9EA243 		.word	1134730782
 910 0cec F72EA143 		.word	1134636791
 911 0cf0 AEC09F43 		.word	1134543022
 912 0cf4 40539E43 		.word	1134449472
 913 0cf8 B5E69C43 		.word	1134356149
 914 0cfc 0F7B9B43 		.word	1134263055
 915 0d00 52109A43 		.word	1134170194
 916 0d04 81A69843 		.word	1134077569
 917 0d08 9F3D9743 		.word	1133985183
 918 0d0c B2D59543 		.word	1133893042
 919 0d10 B86E9443 		.word	1133801144
 920 0d14 BB089343 		.word	1133709499
 921 0d18 BDA39143 		.word	1133618109
 922 0d1c BE3F9043 		.word	1133526974
 923 0d20 C3DC8E43 		.word	1133436099
 924 0d24 D17A8D43 		.word	1133345489
 925 0d28 EC198C43 		.word	1133255148
 926 0d2c 13BA8A43 		.word	1133165075
 927 0d30 4A5B8943 		.word	1133075274
 928 0d34 9BFD8743 		.word	1132985755
 929 0d38 03A18643 		.word	1132896515
 930 0d3c 84458543 		.word	1132807556
 931 0d40 29EB8343 		.word	1132718889
 932 0d44 EF918243 		.word	1132630511
 933 0d48 DB398143 		.word	1132542427
 934 0d4c E3C57F43 		.word	1132447203
 935 0d50 651A7D43 		.word	1132272229
 936 0d54 48717A43 		.word	1132097864
 937 0d58 93CA7743 		.word	1131924115
 938 0d5c 4C267543 		.word	1131750988
 939 0d60 7B847243 		.word	1131578491
 940 0d64 1FE56F43 		.word	1131406623
 941 0d68 45486D43 		.word	1131235397
 942 0d6c F4AD6A43 		.word	1131064820
 943 0d70 2B166843 		.word	1130894891
 944 0d74 F9806543 		.word	1130725625
 945 0d78 63EE6243 		.word	1130557027
 946 0d7c 6A5E6043 		.word	1130389098
 947 0d80 1AD15D43 		.word	1130221850
 948 0d84 7A465B43 		.word	1130055290
 949 0d88 8ABE5843 		.word	1129889418
 950 0d8c 52395643 		.word	1129724242
 951 0d90 DCB65343 		.word	1129559772
 952 0d94 2B375143 		.word	1129396011
ARM GAS  C:\Users\wyx12\AppData\Local\Temp\cc7T4ubM.s 			page 18


 953 0d98 44BA4E43 		.word	1129232964
 954 0d9c 34404C43 		.word	1129070644
 955 0da0 F6C84943 		.word	1128909046
 956 0da4 9C544743 		.word	1128748188
 957 0da8 26E34443 		.word	1128588070
 958 0dac 9C744243 		.word	1128428700
 959 0db0 FC084043 		.word	1128270076
 960 0db4 55A03D43 		.word	1128112213
 961 0db8 AD3A3B43 		.word	1127955117
 962 0dbc 03D83843 		.word	1127798787
 963 0dc0 66783643 		.word	1127643238
 964 0dc4 D41B3443 		.word	1127488468
 965 0dc8 54C23143 		.word	1127334484
 966 0dcc F56B2F43 		.word	1127181301
 967 0dd0 AE182D43 		.word	1127028910
 968 0dd4 8DC82A43 		.word	1126877325
 969 0dd8 997B2843 		.word	1126726553
 970 0ddc D1312643 		.word	1126576593
 971 0de0 44EB2343 		.word	1126427460
 972 0de4 F0A72143 		.word	1126279152
 973 0de8 E3671F43 		.word	1126131683
 974 0dec 162B1D43 		.word	1125985046
 975 0df0 96F11A43 		.word	1125839254
 976 0df4 6BBB1843 		.word	1125694315
 977 0df8 93881643 		.word	1125550227
 978 0dfc 17591443 		.word	1125406999
 979 0e00 012D1243 		.word	1125264641
 980 0e04 54041043 		.word	1125123156
 981 0e08 0EDF0D43 		.word	1124982542
 982 0e0c 3CBD0B43 		.word	1124842812
 983 0e10 E09E0943 		.word	1124703968
 984 0e14 05840743 		.word	1124566021
 985 0e18 A56C0543 		.word	1124428965
 986 0e1c D5580343 		.word	1124292821
 987 0e20 86480143 		.word	1124157574
 988 0e24 9A77FE42 		.word	1123973018
 989 0e28 5365FA42 		.word	1123706195
 990 0e2c 445AF642 		.word	1123441220
 991 0e30 7A56F242 		.word	1123178106
 992 0e34 F559EE42 		.word	1122916853
 993 0e38 C364EA42 		.word	1122657475
 994 0e3c F076E642 		.word	1122399984
 995 0e40 7D90E242 		.word	1122144381
 996 0e44 83B1DE42 		.word	1121890691
 997 0e48 F5D9DA42 		.word	1121638901
 998 0e4c FC09D742 		.word	1121389052
 999 0e50 8941D342 		.word	1121141129
 1000 0e54 AA80CF42 		.word	1120895146
 1001 0e58 6DC7CB42 		.word	1120651117
 1002 0e5c DD15C842 		.word	1120409053
 1003 0e60 FB6BC442 		.word	1120168955
 1004 0e64 D5C9C042 		.word	1119930837
 1005 0e68 692FBD42 		.word	1119694697
 1006 0e6c D39CB942 		.word	1119460563
 1007 0e70 1312B642 		.word	1119228435
 1008 0e74 358FB242 		.word	1118998325
 1009 0e78 3914AF42 		.word	1118770233
ARM GAS  C:\Users\wyx12\AppData\Local\Temp\cc7T4ubM.s 			page 19


 1010 0e7c 2DA1AB42 		.word	1118544173
 1011 0e80 1136A842 		.word	1118320145
 1012 0e84 FFD2A442 		.word	1118098175
 1013 0e88 F677A142 		.word	1117878262
 1014 0e8c F7249E42 		.word	1117660407
 1015 0e90 1DDA9A42 		.word	1117444637
 1016 0e94 59979742 		.word	1117230937
 1017 0e98 C65C9442 		.word	1117019334
 1018 0e9c 582A9142 		.word	1116809816
 1019 0ea0 27008E42 		.word	1116602407
 1020 0ea4 42DE8A42 		.word	1116397122
 1021 0ea8 9CC48742 		.word	1116193948
 1022 0eac 4DB38442 		.word	1115992909
 1023 0eb0 4BAA8142 		.word	1115793995
 1024 0eb4 5B537D42 		.word	1115509595
 1025 0eb8 05637742 		.word	1115120389
 1026 0ebc 61837142 		.word	1114735457
 1027 0ec0 BCB46B42 		.word	1114354876
 1028 0ec4 17F76542 		.word	1113978647
 1029 0ec8 724A6042 		.word	1113606770
 1030 0ecc E6AE5A42 		.word	1113239270
 1031 0ed0 74245542 		.word	1112876148
 1032 0ed4 36AB4F42 		.word	1112517430
 1033 0ed8 47434A42 		.word	1112163143
 1034 0edc 8BEC4442 		.word	1111813259
 1035 0ee0 38A73F42 		.word	1111467832
 1036 0ee4 33733A42 		.word	1111126835
 1037 0ee8 B1503542 		.word	1110790321
 1038 0eec B13F3042 		.word	1110458289
 1039 0ef0 34402B42 		.word	1110130740
 1040 0ef4 54522642 		.word	1109807700
 1041 0ef8 11762142 		.word	1109489169
 1042 0efc 85AB1C42 		.word	1109175173
 1043 0f00 B0F21742 		.word	1108865712
 1044 0f04 924B1342 		.word	1108560786
 1045 0f08 60B60E42 		.word	1108260448
 1046 0f0c FF320A42 		.word	1107964671
 1047 0f10 89C10542 		.word	1107673481
 1048 0f14 FF610142 		.word	1107386879
 1049 0f18 F628FA41 		.word	1106913526
 1050 0f1c 2DB2F141 		.word	1106358829
 1051 0f20 3B5FE941 		.word	1105813307
 1052 0f24 BE30E141 		.word	1105277118
 1053 0f28 8126D941 		.word	1104750209
 1054 0f2c 8340D141 		.word	1104232579
 1055 0f30 2E7FC941 		.word	1103724334
 1056 0f34 4EE2C141 		.word	1103225422
 1057 0f38 166ABA41 		.word	1102735894
 1058 0f3c 8716B341 		.word	1102255751
 1059 0f40 A1E7AB41 		.word	1101784993
 1060 0f44 CCDDA441 		.word	1101323724
 1061 0f48 A1F89D41 		.word	1100871841
 1062 0f4c 86389741 		.word	1100429446
 1063 0f50 7E9D9041 		.word	1099996542
 1064 0f54 52278A41 		.word	1099573074
 1065 0f58 6DD68341 		.word	1099159149
 1066 0f5c 9B557B41 		.word	1098601883
ARM GAS  C:\Users\wyx12\AppData\Local\Temp\cc7T4ubM.s 			page 20


 1067 0f60 E9486F41 		.word	1097812201
 1068 0f64 C2866341 		.word	1097041602
 1069 0f68 910F5841 		.word	1096290193
 1070 0f6c EBE24C41 		.word	1095557867
 1071 0f70 3B014241 		.word	1094844731
 1072 0f74 E86A3741 		.word	1094150888
 1073 0f78 8A1F2D41 		.word	1093476234
 1074 0f7c F31F2341 		.word	1092820979
 1075 0f80 516B1941 		.word	1092184913
 1076 0f84 0C021041 		.word	1091568140
 1077 0f88 8FE40641 		.word	1090970767
 1078 0f8c AF25FC40 		.word	1090266543
 1079 0f90 CE19EB40 		.word	1089149390
 1080 0f94 A9A4DA40 		.word	1088070825
 1081 0f98 E3C7CA40 		.word	1087031267
 1082 0f9c 7B83BB40 		.word	1086030715
 1083 0fa0 A1D6AC40 		.word	1085068961
 1084 0fa4 27C29E40 		.word	1084146215
 1085 0fa8 0B469140 		.word	1083262475
 1086 0fac 20638440 		.word	1082417952
 1087 0fb0 832F7040 		.word	1081094019
 1088 0fb4 29CB5840 		.word	1079561001
 1089 0fb8 31994240 		.word	1078106417
 1090 0fbc F6972D40 		.word	1076729846
 1091 0fc0 1DC91940 		.word	1075431709
 1092 0fc4 492E0740 		.word	1074212425
 1093 0fc8 6688EB3F 		.word	1072400486
 1094 0fcc 431CCB3F 		.word	1070275651
 1095 0fd0 9D11AD3F 		.word	1068306845
 1096 0fd4 006F913F 		.word	1066495744
 1097 0fd8 DC68703F 		.word	1064331484
 1098 0fdc 3CBD423F 		.word	1061338428
 1099 0fe0 B1E1193F 		.word	1058660785
 1100 0fe4 569FEB3E 		.word	1055629142
 1101 0fe8 711BAD3E 		.word	1051532145
 1102 0fec 696F703E 		.word	1047555945
 1103 0ff0 3EE8193E 		.word	1041885246
 1104 0ff4 560EAD3D 		.word	1034751574
 1105 0ff8 75021A3D 		.word	1025114741
 1106 0ffc 75021A3C 		.word	1008337525
 1107              		.text
 1108              	.Letext0:
 1109              		.file 2 "Modules/fft/Inc/WindowCoeff.h"
ARM GAS  C:\Users\wyx12\AppData\Local\Temp\cc7T4ubM.s 			page 21


DEFINED SYMBOLS
                            *ABS*:00000000 WindowCoeff.c
C:\Users\wyx12\AppData\Local\Temp\cc7T4ubM.s:20     .text.Init_WindowCoef1024:00000000 $t
C:\Users\wyx12\AppData\Local\Temp\cc7T4ubM.s:26     .text.Init_WindowCoef1024:00000000 Init_WindowCoef1024
C:\Users\wyx12\AppData\Local\Temp\cc7T4ubM.s:72     .text.Init_WindowCoef1024:00000020 $d
C:\Users\wyx12\AppData\Local\Temp\cc7T4ubM.s:82     .data.WindowCoef1024:00000000 WindowCoef1024
C:\Users\wyx12\AppData\Local\Temp\cc7T4ubM.s:79     .data.WindowCoef1024:00000000 $d

UNDEFINED SYMBOLS
__aeabi_fdiv
